
./rtarget:     file format elf64-x86-64


Disassembly of section .init:

0000000000000dc8 <_init>:
 dc8:	48 83 ec 08          	sub    $0x8,%rsp
 dcc:	48 8b 05 15 42 20 00 	mov    0x204215(%rip),%rax        # 204fe8 <_GLOBAL_OFFSET_TABLE_+0x130>
 dd3:	48 85 c0             	test   %rax,%rax
 dd6:	74 02                	je     dda <_init+0x12>
 dd8:	ff d0                	callq  *%rax
 dda:	48 83 c4 08          	add    $0x8,%rsp
 dde:	c3                   	retq   

Disassembly of section .plt:

0000000000000de0 <strcasecmp@plt-0x10>:
     de0:	ff 35 da 40 20 00    	pushq  0x2040da(%rip)        # 204ec0 <_GLOBAL_OFFSET_TABLE_+0x8>
     de6:	ff 25 dc 40 20 00    	jmpq   *0x2040dc(%rip)        # 204ec8 <_GLOBAL_OFFSET_TABLE_+0x10>
     dec:	0f 1f 40 00          	nopl   0x0(%rax)

0000000000000df0 <strcasecmp@plt>:
     df0:	ff 25 da 40 20 00    	jmpq   *0x2040da(%rip)        # 204ed0 <_GLOBAL_OFFSET_TABLE_+0x18>
     df6:	68 00 00 00 00       	pushq  $0x0
     dfb:	e9 e0 ff ff ff       	jmpq   de0 <_init+0x18>

0000000000000e00 <__errno_location@plt>:
     e00:	ff 25 d2 40 20 00    	jmpq   *0x2040d2(%rip)        # 204ed8 <_GLOBAL_OFFSET_TABLE_+0x20>
     e06:	68 01 00 00 00       	pushq  $0x1
     e0b:	e9 d0 ff ff ff       	jmpq   de0 <_init+0x18>

0000000000000e10 <srandom@plt>:
     e10:	ff 25 ca 40 20 00    	jmpq   *0x2040ca(%rip)        # 204ee0 <_GLOBAL_OFFSET_TABLE_+0x28>
     e16:	68 02 00 00 00       	pushq  $0x2
     e1b:	e9 c0 ff ff ff       	jmpq   de0 <_init+0x18>

0000000000000e20 <strncmp@plt>:
     e20:	ff 25 c2 40 20 00    	jmpq   *0x2040c2(%rip)        # 204ee8 <_GLOBAL_OFFSET_TABLE_+0x30>
     e26:	68 03 00 00 00       	pushq  $0x3
     e2b:	e9 b0 ff ff ff       	jmpq   de0 <_init+0x18>

0000000000000e30 <strcpy@plt>:
     e30:	ff 25 ba 40 20 00    	jmpq   *0x2040ba(%rip)        # 204ef0 <_GLOBAL_OFFSET_TABLE_+0x38>
     e36:	68 04 00 00 00       	pushq  $0x4
     e3b:	e9 a0 ff ff ff       	jmpq   de0 <_init+0x18>

0000000000000e40 <puts@plt>:
     e40:	ff 25 b2 40 20 00    	jmpq   *0x2040b2(%rip)        # 204ef8 <_GLOBAL_OFFSET_TABLE_+0x40>
     e46:	68 05 00 00 00       	pushq  $0x5
     e4b:	e9 90 ff ff ff       	jmpq   de0 <_init+0x18>

0000000000000e50 <write@plt>:
     e50:	ff 25 aa 40 20 00    	jmpq   *0x2040aa(%rip)        # 204f00 <_GLOBAL_OFFSET_TABLE_+0x48>
     e56:	68 06 00 00 00       	pushq  $0x6
     e5b:	e9 80 ff ff ff       	jmpq   de0 <_init+0x18>

0000000000000e60 <__stack_chk_fail@plt>:
     e60:	ff 25 a2 40 20 00    	jmpq   *0x2040a2(%rip)        # 204f08 <_GLOBAL_OFFSET_TABLE_+0x50>
     e66:	68 07 00 00 00       	pushq  $0x7
     e6b:	e9 70 ff ff ff       	jmpq   de0 <_init+0x18>

0000000000000e70 <mmap@plt>:
     e70:	ff 25 9a 40 20 00    	jmpq   *0x20409a(%rip)        # 204f10 <_GLOBAL_OFFSET_TABLE_+0x58>
     e76:	68 08 00 00 00       	pushq  $0x8
     e7b:	e9 60 ff ff ff       	jmpq   de0 <_init+0x18>

0000000000000e80 <memset@plt>:
     e80:	ff 25 92 40 20 00    	jmpq   *0x204092(%rip)        # 204f18 <_GLOBAL_OFFSET_TABLE_+0x60>
     e86:	68 09 00 00 00       	pushq  $0x9
     e8b:	e9 50 ff ff ff       	jmpq   de0 <_init+0x18>

0000000000000e90 <alarm@plt>:
     e90:	ff 25 8a 40 20 00    	jmpq   *0x20408a(%rip)        # 204f20 <_GLOBAL_OFFSET_TABLE_+0x68>
     e96:	68 0a 00 00 00       	pushq  $0xa
     e9b:	e9 40 ff ff ff       	jmpq   de0 <_init+0x18>

0000000000000ea0 <close@plt>:
     ea0:	ff 25 82 40 20 00    	jmpq   *0x204082(%rip)        # 204f28 <_GLOBAL_OFFSET_TABLE_+0x70>
     ea6:	68 0b 00 00 00       	pushq  $0xb
     eab:	e9 30 ff ff ff       	jmpq   de0 <_init+0x18>

0000000000000eb0 <read@plt>:
     eb0:	ff 25 7a 40 20 00    	jmpq   *0x20407a(%rip)        # 204f30 <_GLOBAL_OFFSET_TABLE_+0x78>
     eb6:	68 0c 00 00 00       	pushq  $0xc
     ebb:	e9 20 ff ff ff       	jmpq   de0 <_init+0x18>

0000000000000ec0 <signal@plt>:
     ec0:	ff 25 72 40 20 00    	jmpq   *0x204072(%rip)        # 204f38 <_GLOBAL_OFFSET_TABLE_+0x80>
     ec6:	68 0d 00 00 00       	pushq  $0xd
     ecb:	e9 10 ff ff ff       	jmpq   de0 <_init+0x18>

0000000000000ed0 <gethostbyname@plt>:
     ed0:	ff 25 6a 40 20 00    	jmpq   *0x20406a(%rip)        # 204f40 <_GLOBAL_OFFSET_TABLE_+0x88>
     ed6:	68 0e 00 00 00       	pushq  $0xe
     edb:	e9 00 ff ff ff       	jmpq   de0 <_init+0x18>

0000000000000ee0 <__memmove_chk@plt>:
     ee0:	ff 25 62 40 20 00    	jmpq   *0x204062(%rip)        # 204f48 <_GLOBAL_OFFSET_TABLE_+0x90>
     ee6:	68 0f 00 00 00       	pushq  $0xf
     eeb:	e9 f0 fe ff ff       	jmpq   de0 <_init+0x18>

0000000000000ef0 <strtol@plt>:
     ef0:	ff 25 5a 40 20 00    	jmpq   *0x20405a(%rip)        # 204f50 <_GLOBAL_OFFSET_TABLE_+0x98>
     ef6:	68 10 00 00 00       	pushq  $0x10
     efb:	e9 e0 fe ff ff       	jmpq   de0 <_init+0x18>

0000000000000f00 <memcpy@plt>:
     f00:	ff 25 52 40 20 00    	jmpq   *0x204052(%rip)        # 204f58 <_GLOBAL_OFFSET_TABLE_+0xa0>
     f06:	68 11 00 00 00       	pushq  $0x11
     f0b:	e9 d0 fe ff ff       	jmpq   de0 <_init+0x18>

0000000000000f10 <time@plt>:
     f10:	ff 25 4a 40 20 00    	jmpq   *0x20404a(%rip)        # 204f60 <_GLOBAL_OFFSET_TABLE_+0xa8>
     f16:	68 12 00 00 00       	pushq  $0x12
     f1b:	e9 c0 fe ff ff       	jmpq   de0 <_init+0x18>

0000000000000f20 <random@plt>:
     f20:	ff 25 42 40 20 00    	jmpq   *0x204042(%rip)        # 204f68 <_GLOBAL_OFFSET_TABLE_+0xb0>
     f26:	68 13 00 00 00       	pushq  $0x13
     f2b:	e9 b0 fe ff ff       	jmpq   de0 <_init+0x18>

0000000000000f30 <_IO_getc@plt>:
     f30:	ff 25 3a 40 20 00    	jmpq   *0x20403a(%rip)        # 204f70 <_GLOBAL_OFFSET_TABLE_+0xb8>
     f36:	68 14 00 00 00       	pushq  $0x14
     f3b:	e9 a0 fe ff ff       	jmpq   de0 <_init+0x18>

0000000000000f40 <__isoc99_sscanf@plt>:
     f40:	ff 25 32 40 20 00    	jmpq   *0x204032(%rip)        # 204f78 <_GLOBAL_OFFSET_TABLE_+0xc0>
     f46:	68 15 00 00 00       	pushq  $0x15
     f4b:	e9 90 fe ff ff       	jmpq   de0 <_init+0x18>

0000000000000f50 <munmap@plt>:
     f50:	ff 25 2a 40 20 00    	jmpq   *0x20402a(%rip)        # 204f80 <_GLOBAL_OFFSET_TABLE_+0xc8>
     f56:	68 16 00 00 00       	pushq  $0x16
     f5b:	e9 80 fe ff ff       	jmpq   de0 <_init+0x18>

0000000000000f60 <__printf_chk@plt>:
     f60:	ff 25 22 40 20 00    	jmpq   *0x204022(%rip)        # 204f88 <_GLOBAL_OFFSET_TABLE_+0xd0>
     f66:	68 17 00 00 00       	pushq  $0x17
     f6b:	e9 70 fe ff ff       	jmpq   de0 <_init+0x18>

0000000000000f70 <fopen@plt>:
     f70:	ff 25 1a 40 20 00    	jmpq   *0x20401a(%rip)        # 204f90 <_GLOBAL_OFFSET_TABLE_+0xd8>
     f76:	68 18 00 00 00       	pushq  $0x18
     f7b:	e9 60 fe ff ff       	jmpq   de0 <_init+0x18>

0000000000000f80 <getopt@plt>:
     f80:	ff 25 12 40 20 00    	jmpq   *0x204012(%rip)        # 204f98 <_GLOBAL_OFFSET_TABLE_+0xe0>
     f86:	68 19 00 00 00       	pushq  $0x19
     f8b:	e9 50 fe ff ff       	jmpq   de0 <_init+0x18>

0000000000000f90 <strtoul@plt>:
     f90:	ff 25 0a 40 20 00    	jmpq   *0x20400a(%rip)        # 204fa0 <_GLOBAL_OFFSET_TABLE_+0xe8>
     f96:	68 1a 00 00 00       	pushq  $0x1a
     f9b:	e9 40 fe ff ff       	jmpq   de0 <_init+0x18>

0000000000000fa0 <gethostname@plt>:
     fa0:	ff 25 02 40 20 00    	jmpq   *0x204002(%rip)        # 204fa8 <_GLOBAL_OFFSET_TABLE_+0xf0>
     fa6:	68 1b 00 00 00       	pushq  $0x1b
     fab:	e9 30 fe ff ff       	jmpq   de0 <_init+0x18>

0000000000000fb0 <exit@plt>:
     fb0:	ff 25 fa 3f 20 00    	jmpq   *0x203ffa(%rip)        # 204fb0 <_GLOBAL_OFFSET_TABLE_+0xf8>
     fb6:	68 1c 00 00 00       	pushq  $0x1c
     fbb:	e9 20 fe ff ff       	jmpq   de0 <_init+0x18>

0000000000000fc0 <connect@plt>:
     fc0:	ff 25 f2 3f 20 00    	jmpq   *0x203ff2(%rip)        # 204fb8 <_GLOBAL_OFFSET_TABLE_+0x100>
     fc6:	68 1d 00 00 00       	pushq  $0x1d
     fcb:	e9 10 fe ff ff       	jmpq   de0 <_init+0x18>

0000000000000fd0 <__fprintf_chk@plt>:
     fd0:	ff 25 ea 3f 20 00    	jmpq   *0x203fea(%rip)        # 204fc0 <_GLOBAL_OFFSET_TABLE_+0x108>
     fd6:	68 1e 00 00 00       	pushq  $0x1e
     fdb:	e9 00 fe ff ff       	jmpq   de0 <_init+0x18>

0000000000000fe0 <__sprintf_chk@plt>:
     fe0:	ff 25 e2 3f 20 00    	jmpq   *0x203fe2(%rip)        # 204fc8 <_GLOBAL_OFFSET_TABLE_+0x110>
     fe6:	68 1f 00 00 00       	pushq  $0x1f
     feb:	e9 f0 fd ff ff       	jmpq   de0 <_init+0x18>

0000000000000ff0 <socket@plt>:
     ff0:	ff 25 da 3f 20 00    	jmpq   *0x203fda(%rip)        # 204fd0 <_GLOBAL_OFFSET_TABLE_+0x118>
     ff6:	68 20 00 00 00       	pushq  $0x20
     ffb:	e9 e0 fd ff ff       	jmpq   de0 <_init+0x18>

Disassembly of section .plt.got:

0000000000001000 <.plt.got>:
    1000:	ff 25 f2 3f 20 00    	jmpq   *0x203ff2(%rip)        # 204ff8 <_GLOBAL_OFFSET_TABLE_+0x140>
    1006:	66 90                	xchg   %ax,%ax

Disassembly of section .text:

0000000000001010 <_start>:
    1010:	31 ed                	xor    %ebp,%ebp
    1012:	49 89 d1             	mov    %rdx,%r9
    1015:	5e                   	pop    %rsi
    1016:	48 89 e2             	mov    %rsp,%rdx
    1019:	48 83 e4 f0          	and    $0xfffffffffffffff0,%rsp
    101d:	50                   	push   %rax
    101e:	54                   	push   %rsp
    101f:	4c 8d 05 5a 21 00 00 	lea    0x215a(%rip),%r8        # 3180 <__libc_csu_fini>
    1026:	48 8d 0d e3 20 00 00 	lea    0x20e3(%rip),%rcx        # 3110 <__libc_csu_init>
    102d:	48 8d 3d df 02 00 00 	lea    0x2df(%rip),%rdi        # 1313 <main>
    1034:	ff 15 a6 3f 20 00    	callq  *0x203fa6(%rip)        # 204fe0 <_GLOBAL_OFFSET_TABLE_+0x128>
    103a:	f4                   	hlt    
    103b:	0f 1f 44 00 00       	nopl   0x0(%rax,%rax,1)

0000000000001040 <deregister_tm_clones>:
    1040:	48 8d 3d 31 43 20 00 	lea    0x204331(%rip),%rdi        # 205378 <__TMC_END__>
    1047:	55                   	push   %rbp
    1048:	48 8d 05 29 43 20 00 	lea    0x204329(%rip),%rax        # 205378 <__TMC_END__>
    104f:	48 39 f8             	cmp    %rdi,%rax
    1052:	48 89 e5             	mov    %rsp,%rbp
    1055:	74 19                	je     1070 <deregister_tm_clones+0x30>
    1057:	48 8b 05 7a 3f 20 00 	mov    0x203f7a(%rip),%rax        # 204fd8 <_GLOBAL_OFFSET_TABLE_+0x120>
    105e:	48 85 c0             	test   %rax,%rax
    1061:	74 0d                	je     1070 <deregister_tm_clones+0x30>
    1063:	5d                   	pop    %rbp
    1064:	ff e0                	jmpq   *%rax
    1066:	66 2e 0f 1f 84 00 00 	nopw   %cs:0x0(%rax,%rax,1)
    106d:	00 00 00 
    1070:	5d                   	pop    %rbp
    1071:	c3                   	retq   
    1072:	0f 1f 40 00          	nopl   0x0(%rax)
    1076:	66 2e 0f 1f 84 00 00 	nopw   %cs:0x0(%rax,%rax,1)
    107d:	00 00 00 

0000000000001080 <register_tm_clones>:
    1080:	48 8d 3d f1 42 20 00 	lea    0x2042f1(%rip),%rdi        # 205378 <__TMC_END__>
    1087:	48 8d 35 ea 42 20 00 	lea    0x2042ea(%rip),%rsi        # 205378 <__TMC_END__>
    108e:	55                   	push   %rbp
    108f:	48 29 fe             	sub    %rdi,%rsi
    1092:	48 89 e5             	mov    %rsp,%rbp
    1095:	48 c1 fe 03          	sar    $0x3,%rsi
    1099:	48 89 f0             	mov    %rsi,%rax
    109c:	48 c1 e8 3f          	shr    $0x3f,%rax
    10a0:	48 01 c6             	add    %rax,%rsi
    10a3:	48 d1 fe             	sar    %rsi
    10a6:	74 18                	je     10c0 <register_tm_clones+0x40>
    10a8:	48 8b 05 41 3f 20 00 	mov    0x203f41(%rip),%rax        # 204ff0 <_GLOBAL_OFFSET_TABLE_+0x138>
    10af:	48 85 c0             	test   %rax,%rax
    10b2:	74 0c                	je     10c0 <register_tm_clones+0x40>
    10b4:	5d                   	pop    %rbp
    10b5:	ff e0                	jmpq   *%rax
    10b7:	66 0f 1f 84 00 00 00 	nopw   0x0(%rax,%rax,1)
    10be:	00 00 
    10c0:	5d                   	pop    %rbp
    10c1:	c3                   	retq   
    10c2:	0f 1f 40 00          	nopl   0x0(%rax)
    10c6:	66 2e 0f 1f 84 00 00 	nopw   %cs:0x0(%rax,%rax,1)
    10cd:	00 00 00 

00000000000010d0 <__do_global_dtors_aux>:
    10d0:	80 3d d1 42 20 00 00 	cmpb   $0x0,0x2042d1(%rip)        # 2053a8 <completed.7698>
    10d7:	75 2f                	jne    1108 <__do_global_dtors_aux+0x38>
    10d9:	48 83 3d 17 3f 20 00 	cmpq   $0x0,0x203f17(%rip)        # 204ff8 <_GLOBAL_OFFSET_TABLE_+0x140>
    10e0:	00 
    10e1:	55                   	push   %rbp
    10e2:	48 89 e5             	mov    %rsp,%rbp
    10e5:	74 0c                	je     10f3 <__do_global_dtors_aux+0x23>
    10e7:	48 8b 3d 1a 3f 20 00 	mov    0x203f1a(%rip),%rdi        # 205008 <__dso_handle>
    10ee:	e8 0d ff ff ff       	callq  1000 <socket@plt+0x10>
    10f3:	e8 48 ff ff ff       	callq  1040 <deregister_tm_clones>
    10f8:	c6 05 a9 42 20 00 01 	movb   $0x1,0x2042a9(%rip)        # 2053a8 <completed.7698>
    10ff:	5d                   	pop    %rbp
    1100:	c3                   	retq   
    1101:	0f 1f 80 00 00 00 00 	nopl   0x0(%rax)
    1108:	f3 c3                	repz retq 
    110a:	66 0f 1f 44 00 00    	nopw   0x0(%rax,%rax,1)

0000000000001110 <frame_dummy>:
    1110:	55                   	push   %rbp
    1111:	48 89 e5             	mov    %rsp,%rbp
    1114:	5d                   	pop    %rbp
    1115:	e9 66 ff ff ff       	jmpq   1080 <register_tm_clones>

000000000000111a <usage>:
    111a:	48 83 ec 08          	sub    $0x8,%rsp
    111e:	48 89 fa             	mov    %rdi,%rdx
    1121:	83 3d c0 42 20 00 00 	cmpl   $0x0,0x2042c0(%rip)        # 2053e8 <is_checker>
    1128:	74 50                	je     117a <usage+0x60>
    112a:	48 8d 35 67 20 00 00 	lea    0x2067(%rip),%rsi        # 3198 <_IO_stdin_used+0x8>
    1131:	bf 01 00 00 00       	mov    $0x1,%edi
    1136:	b8 00 00 00 00       	mov    $0x0,%eax
    113b:	e8 20 fe ff ff       	callq  f60 <__printf_chk@plt>
    1140:	48 8d 3d 89 20 00 00 	lea    0x2089(%rip),%rdi        # 31d0 <_IO_stdin_used+0x40>
    1147:	e8 f4 fc ff ff       	callq  e40 <puts@plt>
    114c:	48 8d 3d b5 21 00 00 	lea    0x21b5(%rip),%rdi        # 3308 <_IO_stdin_used+0x178>
    1153:	e8 e8 fc ff ff       	callq  e40 <puts@plt>
    1158:	48 8d 3d 99 20 00 00 	lea    0x2099(%rip),%rdi        # 31f8 <_IO_stdin_used+0x68>
    115f:	e8 dc fc ff ff       	callq  e40 <puts@plt>
    1164:	48 8d 3d b7 21 00 00 	lea    0x21b7(%rip),%rdi        # 3322 <_IO_stdin_used+0x192>
    116b:	e8 d0 fc ff ff       	callq  e40 <puts@plt>
    1170:	bf 00 00 00 00       	mov    $0x0,%edi
    1175:	e8 36 fe ff ff       	callq  fb0 <exit@plt>
    117a:	48 8d 35 bd 21 00 00 	lea    0x21bd(%rip),%rsi        # 333e <_IO_stdin_used+0x1ae>
    1181:	bf 01 00 00 00       	mov    $0x1,%edi
    1186:	b8 00 00 00 00       	mov    $0x0,%eax
    118b:	e8 d0 fd ff ff       	callq  f60 <__printf_chk@plt>
    1190:	48 8d 3d 89 20 00 00 	lea    0x2089(%rip),%rdi        # 3220 <_IO_stdin_used+0x90>
    1197:	e8 a4 fc ff ff       	callq  e40 <puts@plt>
    119c:	48 8d 3d a5 20 00 00 	lea    0x20a5(%rip),%rdi        # 3248 <_IO_stdin_used+0xb8>
    11a3:	e8 98 fc ff ff       	callq  e40 <puts@plt>
    11a8:	48 8d 3d ad 21 00 00 	lea    0x21ad(%rip),%rdi        # 335c <_IO_stdin_used+0x1cc>
    11af:	e8 8c fc ff ff       	callq  e40 <puts@plt>
    11b4:	eb ba                	jmp    1170 <usage+0x56>

00000000000011b6 <initialize_target>:
    11b6:	55                   	push   %rbp
    11b7:	53                   	push   %rbx
    11b8:	48 81 ec 18 21 00 00 	sub    $0x2118,%rsp
    11bf:	89 f5                	mov    %esi,%ebp
    11c1:	64 48 8b 04 25 28 00 	mov    %fs:0x28,%rax
    11c8:	00 00 
    11ca:	48 89 84 24 08 21 00 	mov    %rax,0x2108(%rsp)
    11d1:	00 
    11d2:	31 c0                	xor    %eax,%eax
    11d4:	89 3d fe 41 20 00    	mov    %edi,0x2041fe(%rip)        # 2053d8 <check_level>
    11da:	8b 3d 30 3e 20 00    	mov    0x203e30(%rip),%edi        # 205010 <target_id>
    11e0:	e8 08 1f 00 00       	callq  30ed <gencookie>
    11e5:	89 05 f9 41 20 00    	mov    %eax,0x2041f9(%rip)        # 2053e4 <cookie>
    11eb:	89 c7                	mov    %eax,%edi
    11ed:	e8 fb 1e 00 00       	callq  30ed <gencookie>
    11f2:	89 05 e8 41 20 00    	mov    %eax,0x2041e8(%rip)        # 2053e0 <authkey>
    11f8:	8b 05 12 3e 20 00    	mov    0x203e12(%rip),%eax        # 205010 <target_id>
    11fe:	8d 78 01             	lea    0x1(%rax),%edi
    1201:	e8 0a fc ff ff       	callq  e10 <srandom@plt>
    1206:	e8 15 fd ff ff       	callq  f20 <random@plt>
    120b:	89 c7                	mov    %eax,%edi
    120d:	e8 ec 02 00 00       	callq  14fe <scramble>
    1212:	89 c3                	mov    %eax,%ebx
    1214:	85 ed                	test   %ebp,%ebp
    1216:	75 54                	jne    126c <initialize_target+0xb6>
    1218:	b8 00 00 00 00       	mov    $0x0,%eax
    121d:	01 d8                	add    %ebx,%eax
    121f:	0f b7 c0             	movzwl %ax,%eax
    1222:	8d 04 c5 00 01 00 00 	lea    0x100(,%rax,8),%eax
    1229:	89 c0                	mov    %eax,%eax
    122b:	48 89 05 3e 41 20 00 	mov    %rax,0x20413e(%rip)        # 205370 <buf_offset>
    1232:	c6 05 33 41 20 00 72 	movb   $0x72,0x204133(%rip)        # 20536c <target_prefix>
    1239:	83 3d 28 41 20 00 00 	cmpl   $0x0,0x204128(%rip)        # 205368 <notify>
    1240:	74 09                	je     124b <initialize_target+0x95>
    1242:	83 3d 9f 41 20 00 00 	cmpl   $0x0,0x20419f(%rip)        # 2053e8 <is_checker>
    1249:	74 39                	je     1284 <initialize_target+0xce>
    124b:	48 8b 84 24 08 21 00 	mov    0x2108(%rsp),%rax
    1252:	00 
    1253:	64 48 33 04 25 28 00 	xor    %fs:0x28,%rax
    125a:	00 00 
    125c:	0f 85 ac 00 00 00    	jne    130e <initialize_target+0x158>
    1262:	48 81 c4 18 21 00 00 	add    $0x2118,%rsp
    1269:	5b                   	pop    %rbx
    126a:	5d                   	pop    %rbp
    126b:	c3                   	retq   
    126c:	bf 00 00 00 00       	mov    $0x0,%edi
    1271:	e8 9a fc ff ff       	callq  f10 <time@plt>
    1276:	89 c7                	mov    %eax,%edi
    1278:	e8 93 fb ff ff       	callq  e10 <srandom@plt>
    127d:	e8 9e fc ff ff       	callq  f20 <random@plt>
    1282:	eb 99                	jmp    121d <initialize_target+0x67>
    1284:	48 89 e7             	mov    %rsp,%rdi
    1287:	be 00 01 00 00       	mov    $0x100,%esi
    128c:	e8 0f fd ff ff       	callq  fa0 <gethostname@plt>
    1291:	89 c3                	mov    %eax,%ebx
    1293:	85 c0                	test   %eax,%eax
    1295:	75 24                	jne    12bb <initialize_target+0x105>
    1297:	48 63 c3             	movslq %ebx,%rax
    129a:	48 8d 15 9f 3d 20 00 	lea    0x203d9f(%rip),%rdx        # 205040 <host_table>
    12a1:	48 8b 3c c2          	mov    (%rdx,%rax,8),%rdi
    12a5:	48 85 ff             	test   %rdi,%rdi
    12a8:	74 27                	je     12d1 <initialize_target+0x11b>
    12aa:	48 89 e6             	mov    %rsp,%rsi
    12ad:	e8 3e fb ff ff       	callq  df0 <strcasecmp@plt>
    12b2:	85 c0                	test   %eax,%eax
    12b4:	74 1b                	je     12d1 <initialize_target+0x11b>
    12b6:	83 c3 01             	add    $0x1,%ebx
    12b9:	eb dc                	jmp    1297 <initialize_target+0xe1>
    12bb:	48 8d 3d b6 1f 00 00 	lea    0x1fb6(%rip),%rdi        # 3278 <_IO_stdin_used+0xe8>
    12c2:	e8 79 fb ff ff       	callq  e40 <puts@plt>
    12c7:	bf 08 00 00 00       	mov    $0x8,%edi
    12cc:	e8 df fc ff ff       	callq  fb0 <exit@plt>
    12d1:	48 8d bc 24 00 01 00 	lea    0x100(%rsp),%rdi
    12d8:	00 
    12d9:	e8 3f 1b 00 00       	callq  2e1d <init_driver>
    12de:	85 c0                	test   %eax,%eax
    12e0:	0f 89 65 ff ff ff    	jns    124b <initialize_target+0x95>
    12e6:	48 8d 94 24 00 01 00 	lea    0x100(%rsp),%rdx
    12ed:	00 
    12ee:	48 8d 35 bb 1f 00 00 	lea    0x1fbb(%rip),%rsi        # 32b0 <_IO_stdin_used+0x120>
    12f5:	bf 01 00 00 00       	mov    $0x1,%edi
    12fa:	b8 00 00 00 00       	mov    $0x0,%eax
    12ff:	e8 5c fc ff ff       	callq  f60 <__printf_chk@plt>
    1304:	bf 08 00 00 00       	mov    $0x8,%edi
    1309:	e8 a2 fc ff ff       	callq  fb0 <exit@plt>
    130e:	e8 4d fb ff ff       	callq  e60 <__stack_chk_fail@plt>

0000000000001313 <main>:
    1313:	41 56                	push   %r14
    1315:	41 55                	push   %r13
    1317:	41 54                	push   %r12
    1319:	55                   	push   %rbp
    131a:	53                   	push   %rbx
    131b:	41 89 fc             	mov    %edi,%r12d
    131e:	48 89 f3             	mov    %rsi,%rbx
    1321:	48 8d 35 fc 0d 00 00 	lea    0xdfc(%rip),%rsi        # 2124 <seghandler>
    1328:	bf 0b 00 00 00       	mov    $0xb,%edi
    132d:	e8 8e fb ff ff       	callq  ec0 <signal@plt>
    1332:	48 8d 35 97 0d 00 00 	lea    0xd97(%rip),%rsi        # 20d0 <bushandler>
    1339:	bf 07 00 00 00       	mov    $0x7,%edi
    133e:	e8 7d fb ff ff       	callq  ec0 <signal@plt>
    1343:	48 8d 35 2e 0e 00 00 	lea    0xe2e(%rip),%rsi        # 2178 <illegalhandler>
    134a:	bf 04 00 00 00       	mov    $0x4,%edi
    134f:	e8 6c fb ff ff       	callq  ec0 <signal@plt>
    1354:	83 3d 8d 40 20 00 00 	cmpl   $0x0,0x20408d(%rip)        # 2053e8 <is_checker>
    135b:	75 26                	jne    1383 <main+0x70>
    135d:	48 8d 2d 11 20 00 00 	lea    0x2011(%rip),%rbp        # 3375 <_IO_stdin_used+0x1e5>
    1364:	48 8b 05 15 40 20 00 	mov    0x204015(%rip),%rax        # 205380 <stdin@@GLIBC_2.2.5>
    136b:	48 89 05 5e 40 20 00 	mov    %rax,0x20405e(%rip)        # 2053d0 <infile>
    1372:	41 bd 00 00 00 00    	mov    $0x0,%r13d
    1378:	41 be 00 00 00 00    	mov    $0x0,%r14d
    137e:	e9 8d 00 00 00       	jmpq   1410 <main+0xfd>
    1383:	48 8d 35 42 0e 00 00 	lea    0xe42(%rip),%rsi        # 21cc <sigalrmhandler>
    138a:	bf 0e 00 00 00       	mov    $0xe,%edi
    138f:	e8 2c fb ff ff       	callq  ec0 <signal@plt>
    1394:	bf 05 00 00 00       	mov    $0x5,%edi
    1399:	e8 f2 fa ff ff       	callq  e90 <alarm@plt>
    139e:	48 8d 2d d5 1f 00 00 	lea    0x1fd5(%rip),%rbp        # 337a <_IO_stdin_used+0x1ea>
    13a5:	eb bd                	jmp    1364 <main+0x51>
    13a7:	48 8b 3b             	mov    (%rbx),%rdi
    13aa:	e8 6b fd ff ff       	callq  111a <usage>
    13af:	48 8d 35 17 22 00 00 	lea    0x2217(%rip),%rsi        # 35cd <_IO_stdin_used+0x43d>
    13b6:	48 8b 3d cb 3f 20 00 	mov    0x203fcb(%rip),%rdi        # 205388 <optarg@@GLIBC_2.2.5>
    13bd:	e8 ae fb ff ff       	callq  f70 <fopen@plt>
    13c2:	48 89 05 07 40 20 00 	mov    %rax,0x204007(%rip)        # 2053d0 <infile>
    13c9:	48 85 c0             	test   %rax,%rax
    13cc:	75 42                	jne    1410 <main+0xfd>
    13ce:	48 8b 0d b3 3f 20 00 	mov    0x203fb3(%rip),%rcx        # 205388 <optarg@@GLIBC_2.2.5>
    13d5:	48 8d 15 a6 1f 00 00 	lea    0x1fa6(%rip),%rdx        # 3382 <_IO_stdin_used+0x1f2>
    13dc:	be 01 00 00 00       	mov    $0x1,%esi
    13e1:	48 8b 3d b8 3f 20 00 	mov    0x203fb8(%rip),%rdi        # 2053a0 <stderr@@GLIBC_2.2.5>
    13e8:	e8 e3 fb ff ff       	callq  fd0 <__fprintf_chk@plt>
    13ed:	b8 01 00 00 00       	mov    $0x1,%eax
    13f2:	e9 d9 00 00 00       	jmpq   14d0 <main+0x1bd>
    13f7:	ba 10 00 00 00       	mov    $0x10,%edx
    13fc:	be 00 00 00 00       	mov    $0x0,%esi
    1401:	48 8b 3d 80 3f 20 00 	mov    0x203f80(%rip),%rdi        # 205388 <optarg@@GLIBC_2.2.5>
    1408:	e8 83 fb ff ff       	callq  f90 <strtoul@plt>
    140d:	41 89 c6             	mov    %eax,%r14d
    1410:	48 89 ea             	mov    %rbp,%rdx
    1413:	48 89 de             	mov    %rbx,%rsi
    1416:	44 89 e7             	mov    %r12d,%edi
    1419:	e8 62 fb ff ff       	callq  f80 <getopt@plt>
    141e:	3c ff                	cmp    $0xff,%al
    1420:	74 62                	je     1484 <main+0x171>
    1422:	0f be d0             	movsbl %al,%edx
    1425:	83 e8 61             	sub    $0x61,%eax
    1428:	3c 10                	cmp    $0x10,%al
    142a:	77 3a                	ja     1466 <main+0x153>
    142c:	0f b6 c0             	movzbl %al,%eax
    142f:	48 8d 0d 8a 1f 00 00 	lea    0x1f8a(%rip),%rcx        # 33c0 <_IO_stdin_used+0x230>
    1436:	48 63 04 81          	movslq (%rcx,%rax,4),%rax
    143a:	48 01 c8             	add    %rcx,%rax
    143d:	ff e0                	jmpq   *%rax
    143f:	ba 0a 00 00 00       	mov    $0xa,%edx
    1444:	be 00 00 00 00       	mov    $0x0,%esi
    1449:	48 8b 3d 38 3f 20 00 	mov    0x203f38(%rip),%rdi        # 205388 <optarg@@GLIBC_2.2.5>
    1450:	e8 9b fa ff ff       	callq  ef0 <strtol@plt>
    1455:	41 89 c5             	mov    %eax,%r13d
    1458:	eb b6                	jmp    1410 <main+0xfd>
    145a:	c7 05 04 3f 20 00 00 	movl   $0x0,0x203f04(%rip)        # 205368 <notify>
    1461:	00 00 00 
    1464:	eb aa                	jmp    1410 <main+0xfd>
    1466:	48 8d 35 32 1f 00 00 	lea    0x1f32(%rip),%rsi        # 339f <_IO_stdin_used+0x20f>
    146d:	bf 01 00 00 00       	mov    $0x1,%edi
    1472:	b8 00 00 00 00       	mov    $0x0,%eax
    1477:	e8 e4 fa ff ff       	callq  f60 <__printf_chk@plt>
    147c:	48 8b 3b             	mov    (%rbx),%rdi
    147f:	e8 96 fc ff ff       	callq  111a <usage>
    1484:	be 01 00 00 00       	mov    $0x1,%esi
    1489:	44 89 ef             	mov    %r13d,%edi
    148c:	e8 25 fd ff ff       	callq  11b6 <initialize_target>
    1491:	83 3d 50 3f 20 00 00 	cmpl   $0x0,0x203f50(%rip)        # 2053e8 <is_checker>
    1498:	74 09                	je     14a3 <main+0x190>
    149a:	44 39 35 3f 3f 20 00 	cmp    %r14d,0x203f3f(%rip)        # 2053e0 <authkey>
    14a1:	75 36                	jne    14d9 <main+0x1c6>
    14a3:	8b 15 3b 3f 20 00    	mov    0x203f3b(%rip),%edx        # 2053e4 <cookie>
    14a9:	48 8d 35 02 1f 00 00 	lea    0x1f02(%rip),%rsi        # 33b2 <_IO_stdin_used+0x222>
    14b0:	bf 01 00 00 00       	mov    $0x1,%edi
    14b5:	b8 00 00 00 00       	mov    $0x0,%eax
    14ba:	e8 a1 fa ff ff       	callq  f60 <__printf_chk@plt>
    14bf:	48 8b 3d aa 3e 20 00 	mov    0x203eaa(%rip),%rdi        # 205370 <buf_offset>
    14c6:	e8 58 0d 00 00       	callq  2223 <launch>
    14cb:	b8 00 00 00 00       	mov    $0x0,%eax
    14d0:	5b                   	pop    %rbx
    14d1:	5d                   	pop    %rbp
    14d2:	41 5c                	pop    %r12
    14d4:	41 5d                	pop    %r13
    14d6:	41 5e                	pop    %r14
    14d8:	c3                   	retq   
    14d9:	44 89 f2             	mov    %r14d,%edx
    14dc:	48 8d 35 f5 1d 00 00 	lea    0x1df5(%rip),%rsi        # 32d8 <_IO_stdin_used+0x148>
    14e3:	bf 01 00 00 00       	mov    $0x1,%edi
    14e8:	b8 00 00 00 00       	mov    $0x0,%eax
    14ed:	e8 6e fa ff ff       	callq  f60 <__printf_chk@plt>
    14f2:	b8 00 00 00 00       	mov    $0x0,%eax
    14f7:	e8 34 08 00 00       	callq  1d30 <check_fail>
    14fc:	eb a5                	jmp    14a3 <main+0x190>

00000000000014fe <scramble>:
    14fe:	48 83 ec 38          	sub    $0x38,%rsp
    1502:	64 48 8b 04 25 28 00 	mov    %fs:0x28,%rax
    1509:	00 00 
    150b:	48 89 44 24 28       	mov    %rax,0x28(%rsp)
    1510:	31 c0                	xor    %eax,%eax
    1512:	eb 10                	jmp    1524 <scramble+0x26>
    1514:	69 d0 ed 8a 00 00    	imul   $0x8aed,%eax,%edx
    151a:	01 fa                	add    %edi,%edx
    151c:	89 c1                	mov    %eax,%ecx
    151e:	89 14 8c             	mov    %edx,(%rsp,%rcx,4)
    1521:	83 c0 01             	add    $0x1,%eax
    1524:	83 f8 09             	cmp    $0x9,%eax
    1527:	76 eb                	jbe    1514 <scramble+0x16>
    1529:	8b 44 24 24          	mov    0x24(%rsp),%eax
    152d:	69 c0 d8 56 00 00    	imul   $0x56d8,%eax,%eax
    1533:	89 44 24 24          	mov    %eax,0x24(%rsp)
    1537:	8b 44 24 18          	mov    0x18(%rsp),%eax
    153b:	69 c0 f0 a4 00 00    	imul   $0xa4f0,%eax,%eax
    1541:	89 44 24 18          	mov    %eax,0x18(%rsp)
    1545:	8b 44 24 24          	mov    0x24(%rsp),%eax
    1549:	69 c0 72 6a 00 00    	imul   $0x6a72,%eax,%eax
    154f:	89 44 24 24          	mov    %eax,0x24(%rsp)
    1553:	8b 44 24 18          	mov    0x18(%rsp),%eax
    1557:	69 c0 fa c6 00 00    	imul   $0xc6fa,%eax,%eax
    155d:	89 44 24 18          	mov    %eax,0x18(%rsp)
    1561:	8b 44 24 1c          	mov    0x1c(%rsp),%eax
    1565:	69 c0 27 b9 00 00    	imul   $0xb927,%eax,%eax
    156b:	89 44 24 1c          	mov    %eax,0x1c(%rsp)
    156f:	8b 44 24 1c          	mov    0x1c(%rsp),%eax
    1573:	69 c0 83 0d 00 00    	imul   $0xd83,%eax,%eax
    1579:	89 44 24 1c          	mov    %eax,0x1c(%rsp)
    157d:	8b 44 24 04          	mov    0x4(%rsp),%eax
    1581:	69 c0 4d b0 00 00    	imul   $0xb04d,%eax,%eax
    1587:	89 44 24 04          	mov    %eax,0x4(%rsp)
    158b:	8b 44 24 24          	mov    0x24(%rsp),%eax
    158f:	69 c0 19 eb 00 00    	imul   $0xeb19,%eax,%eax
    1595:	89 44 24 24          	mov    %eax,0x24(%rsp)
    1599:	8b 44 24 14          	mov    0x14(%rsp),%eax
    159d:	69 c0 7c 3d 00 00    	imul   $0x3d7c,%eax,%eax
    15a3:	89 44 24 14          	mov    %eax,0x14(%rsp)
    15a7:	8b 54 24 24          	mov    0x24(%rsp),%edx
    15ab:	89 d0                	mov    %edx,%eax
    15ad:	c1 e0 0c             	shl    $0xc,%eax
    15b0:	29 d0                	sub    %edx,%eax
    15b2:	89 44 24 24          	mov    %eax,0x24(%rsp)
    15b6:	8b 04 24             	mov    (%rsp),%eax
    15b9:	69 c0 4e ff 00 00    	imul   $0xff4e,%eax,%eax
    15bf:	89 04 24             	mov    %eax,(%rsp)
    15c2:	8b 44 24 24          	mov    0x24(%rsp),%eax
    15c6:	69 c0 b4 8e 00 00    	imul   $0x8eb4,%eax,%eax
    15cc:	89 44 24 24          	mov    %eax,0x24(%rsp)
    15d0:	8b 44 24 14          	mov    0x14(%rsp),%eax
    15d4:	69 c0 59 ae 00 00    	imul   $0xae59,%eax,%eax
    15da:	89 44 24 14          	mov    %eax,0x14(%rsp)
    15de:	8b 44 24 24          	mov    0x24(%rsp),%eax
    15e2:	69 c0 c7 26 00 00    	imul   $0x26c7,%eax,%eax
    15e8:	89 44 24 24          	mov    %eax,0x24(%rsp)
    15ec:	8b 44 24 08          	mov    0x8(%rsp),%eax
    15f0:	69 c0 9b e4 00 00    	imul   $0xe49b,%eax,%eax
    15f6:	89 44 24 08          	mov    %eax,0x8(%rsp)
    15fa:	8b 44 24 08          	mov    0x8(%rsp),%eax
    15fe:	69 c0 b0 b0 00 00    	imul   $0xb0b0,%eax,%eax
    1604:	89 44 24 08          	mov    %eax,0x8(%rsp)
    1608:	8b 44 24 20          	mov    0x20(%rsp),%eax
    160c:	69 c0 59 34 00 00    	imul   $0x3459,%eax,%eax
    1612:	89 44 24 20          	mov    %eax,0x20(%rsp)
    1616:	8b 44 24 24          	mov    0x24(%rsp),%eax
    161a:	69 c0 56 c2 00 00    	imul   $0xc256,%eax,%eax
    1620:	89 44 24 24          	mov    %eax,0x24(%rsp)
    1624:	8b 44 24 10          	mov    0x10(%rsp),%eax
    1628:	69 c0 e1 67 00 00    	imul   $0x67e1,%eax,%eax
    162e:	89 44 24 10          	mov    %eax,0x10(%rsp)
    1632:	8b 44 24 0c          	mov    0xc(%rsp),%eax
    1636:	69 c0 41 83 00 00    	imul   $0x8341,%eax,%eax
    163c:	89 44 24 0c          	mov    %eax,0xc(%rsp)
    1640:	8b 04 24             	mov    (%rsp),%eax
    1643:	69 c0 4b 20 00 00    	imul   $0x204b,%eax,%eax
    1649:	89 04 24             	mov    %eax,(%rsp)
    164c:	8b 44 24 04          	mov    0x4(%rsp),%eax
    1650:	69 c0 f2 3a 00 00    	imul   $0x3af2,%eax,%eax
    1656:	89 44 24 04          	mov    %eax,0x4(%rsp)
    165a:	8b 44 24 24          	mov    0x24(%rsp),%eax
    165e:	69 c0 79 32 00 00    	imul   $0x3279,%eax,%eax
    1664:	89 44 24 24          	mov    %eax,0x24(%rsp)
    1668:	8b 44 24 04          	mov    0x4(%rsp),%eax
    166c:	69 c0 64 fe 00 00    	imul   $0xfe64,%eax,%eax
    1672:	89 44 24 04          	mov    %eax,0x4(%rsp)
    1676:	8b 44 24 04          	mov    0x4(%rsp),%eax
    167a:	69 c0 d1 10 00 00    	imul   $0x10d1,%eax,%eax
    1680:	89 44 24 04          	mov    %eax,0x4(%rsp)
    1684:	8b 44 24 1c          	mov    0x1c(%rsp),%eax
    1688:	69 c0 16 f3 00 00    	imul   $0xf316,%eax,%eax
    168e:	89 44 24 1c          	mov    %eax,0x1c(%rsp)
    1692:	8b 44 24 24          	mov    0x24(%rsp),%eax
    1696:	69 c0 ef 04 00 00    	imul   $0x4ef,%eax,%eax
    169c:	89 44 24 24          	mov    %eax,0x24(%rsp)
    16a0:	8b 44 24 18          	mov    0x18(%rsp),%eax
    16a4:	69 c0 1c d5 00 00    	imul   $0xd51c,%eax,%eax
    16aa:	89 44 24 18          	mov    %eax,0x18(%rsp)
    16ae:	8b 44 24 04          	mov    0x4(%rsp),%eax
    16b2:	69 c0 02 40 00 00    	imul   $0x4002,%eax,%eax
    16b8:	89 44 24 04          	mov    %eax,0x4(%rsp)
    16bc:	8b 44 24 20          	mov    0x20(%rsp),%eax
    16c0:	69 c0 0b d9 00 00    	imul   $0xd90b,%eax,%eax
    16c6:	89 44 24 20          	mov    %eax,0x20(%rsp)
    16ca:	8b 44 24 08          	mov    0x8(%rsp),%eax
    16ce:	69 c0 ef 21 00 00    	imul   $0x21ef,%eax,%eax
    16d4:	89 44 24 08          	mov    %eax,0x8(%rsp)
    16d8:	8b 44 24 20          	mov    0x20(%rsp),%eax
    16dc:	69 c0 12 60 00 00    	imul   $0x6012,%eax,%eax
    16e2:	89 44 24 20          	mov    %eax,0x20(%rsp)
    16e6:	8b 04 24             	mov    (%rsp),%eax
    16e9:	69 c0 5c df 00 00    	imul   $0xdf5c,%eax,%eax
    16ef:	89 04 24             	mov    %eax,(%rsp)
    16f2:	8b 44 24 08          	mov    0x8(%rsp),%eax
    16f6:	69 c0 13 f5 00 00    	imul   $0xf513,%eax,%eax
    16fc:	89 44 24 08          	mov    %eax,0x8(%rsp)
    1700:	8b 44 24 1c          	mov    0x1c(%rsp),%eax
    1704:	69 c0 b8 ab 00 00    	imul   $0xabb8,%eax,%eax
    170a:	89 44 24 1c          	mov    %eax,0x1c(%rsp)
    170e:	8b 44 24 1c          	mov    0x1c(%rsp),%eax
    1712:	69 c0 47 68 00 00    	imul   $0x6847,%eax,%eax
    1718:	89 44 24 1c          	mov    %eax,0x1c(%rsp)
    171c:	8b 44 24 1c          	mov    0x1c(%rsp),%eax
    1720:	69 c0 19 09 00 00    	imul   $0x919,%eax,%eax
    1726:	89 44 24 1c          	mov    %eax,0x1c(%rsp)
    172a:	8b 44 24 0c          	mov    0xc(%rsp),%eax
    172e:	69 c0 9c 9c 00 00    	imul   $0x9c9c,%eax,%eax
    1734:	89 44 24 0c          	mov    %eax,0xc(%rsp)
    1738:	8b 04 24             	mov    (%rsp),%eax
    173b:	69 c0 45 c9 00 00    	imul   $0xc945,%eax,%eax
    1741:	89 04 24             	mov    %eax,(%rsp)
    1744:	8b 44 24 18          	mov    0x18(%rsp),%eax
    1748:	69 c0 88 ab 00 00    	imul   $0xab88,%eax,%eax
    174e:	89 44 24 18          	mov    %eax,0x18(%rsp)
    1752:	8b 44 24 24          	mov    0x24(%rsp),%eax
    1756:	69 c0 63 a9 00 00    	imul   $0xa963,%eax,%eax
    175c:	89 44 24 24          	mov    %eax,0x24(%rsp)
    1760:	8b 44 24 18          	mov    0x18(%rsp),%eax
    1764:	69 c0 35 ea 00 00    	imul   $0xea35,%eax,%eax
    176a:	89 44 24 18          	mov    %eax,0x18(%rsp)
    176e:	8b 44 24 0c          	mov    0xc(%rsp),%eax
    1772:	69 c0 6a 20 00 00    	imul   $0x206a,%eax,%eax
    1778:	89 44 24 0c          	mov    %eax,0xc(%rsp)
    177c:	8b 44 24 18          	mov    0x18(%rsp),%eax
    1780:	69 c0 9b 61 00 00    	imul   $0x619b,%eax,%eax
    1786:	89 44 24 18          	mov    %eax,0x18(%rsp)
    178a:	8b 44 24 08          	mov    0x8(%rsp),%eax
    178e:	69 c0 34 bb 00 00    	imul   $0xbb34,%eax,%eax
    1794:	89 44 24 08          	mov    %eax,0x8(%rsp)
    1798:	8b 44 24 04          	mov    0x4(%rsp),%eax
    179c:	69 c0 0a 85 00 00    	imul   $0x850a,%eax,%eax
    17a2:	89 44 24 04          	mov    %eax,0x4(%rsp)
    17a6:	8b 44 24 18          	mov    0x18(%rsp),%eax
    17aa:	69 c0 62 c4 00 00    	imul   $0xc462,%eax,%eax
    17b0:	89 44 24 18          	mov    %eax,0x18(%rsp)
    17b4:	8b 44 24 14          	mov    0x14(%rsp),%eax
    17b8:	69 c0 6b 33 00 00    	imul   $0x336b,%eax,%eax
    17be:	89 44 24 14          	mov    %eax,0x14(%rsp)
    17c2:	8b 04 24             	mov    (%rsp),%eax
    17c5:	69 c0 84 07 00 00    	imul   $0x784,%eax,%eax
    17cb:	89 04 24             	mov    %eax,(%rsp)
    17ce:	8b 44 24 08          	mov    0x8(%rsp),%eax
    17d2:	69 c0 fd ea 00 00    	imul   $0xeafd,%eax,%eax
    17d8:	89 44 24 08          	mov    %eax,0x8(%rsp)
    17dc:	8b 44 24 10          	mov    0x10(%rsp),%eax
    17e0:	69 c0 d3 a0 00 00    	imul   $0xa0d3,%eax,%eax
    17e6:	89 44 24 10          	mov    %eax,0x10(%rsp)
    17ea:	8b 44 24 24          	mov    0x24(%rsp),%eax
    17ee:	69 c0 40 7f 00 00    	imul   $0x7f40,%eax,%eax
    17f4:	89 44 24 24          	mov    %eax,0x24(%rsp)
    17f8:	8b 44 24 08          	mov    0x8(%rsp),%eax
    17fc:	69 c0 7d f6 00 00    	imul   $0xf67d,%eax,%eax
    1802:	89 44 24 08          	mov    %eax,0x8(%rsp)
    1806:	8b 04 24             	mov    (%rsp),%eax
    1809:	69 c0 80 e5 00 00    	imul   $0xe580,%eax,%eax
    180f:	89 04 24             	mov    %eax,(%rsp)
    1812:	8b 44 24 20          	mov    0x20(%rsp),%eax
    1816:	69 c0 dd b6 00 00    	imul   $0xb6dd,%eax,%eax
    181c:	89 44 24 20          	mov    %eax,0x20(%rsp)
    1820:	8b 44 24 20          	mov    0x20(%rsp),%eax
    1824:	69 c0 d8 99 00 00    	imul   $0x99d8,%eax,%eax
    182a:	89 44 24 20          	mov    %eax,0x20(%rsp)
    182e:	8b 44 24 04          	mov    0x4(%rsp),%eax
    1832:	69 c0 a7 2f 00 00    	imul   $0x2fa7,%eax,%eax
    1838:	89 44 24 04          	mov    %eax,0x4(%rsp)
    183c:	8b 44 24 1c          	mov    0x1c(%rsp),%eax
    1840:	69 c0 93 0e 00 00    	imul   $0xe93,%eax,%eax
    1846:	89 44 24 1c          	mov    %eax,0x1c(%rsp)
    184a:	8b 04 24             	mov    (%rsp),%eax
    184d:	69 c0 5e 43 00 00    	imul   $0x435e,%eax,%eax
    1853:	89 04 24             	mov    %eax,(%rsp)
    1856:	8b 44 24 08          	mov    0x8(%rsp),%eax
    185a:	69 c0 7e b0 00 00    	imul   $0xb07e,%eax,%eax
    1860:	89 44 24 08          	mov    %eax,0x8(%rsp)
    1864:	8b 04 24             	mov    (%rsp),%eax
    1867:	69 c0 d4 aa 00 00    	imul   $0xaad4,%eax,%eax
    186d:	89 04 24             	mov    %eax,(%rsp)
    1870:	8b 44 24 1c          	mov    0x1c(%rsp),%eax
    1874:	69 c0 b5 db 00 00    	imul   $0xdbb5,%eax,%eax
    187a:	89 44 24 1c          	mov    %eax,0x1c(%rsp)
    187e:	8b 44 24 10          	mov    0x10(%rsp),%eax
    1882:	69 c0 a5 1a 00 00    	imul   $0x1aa5,%eax,%eax
    1888:	89 44 24 10          	mov    %eax,0x10(%rsp)
    188c:	8b 44 24 1c          	mov    0x1c(%rsp),%eax
    1890:	69 c0 f6 12 00 00    	imul   $0x12f6,%eax,%eax
    1896:	89 44 24 1c          	mov    %eax,0x1c(%rsp)
    189a:	8b 44 24 0c          	mov    0xc(%rsp),%eax
    189e:	69 c0 9f 37 00 00    	imul   $0x379f,%eax,%eax
    18a4:	89 44 24 0c          	mov    %eax,0xc(%rsp)
    18a8:	8b 44 24 18          	mov    0x18(%rsp),%eax
    18ac:	69 c0 66 d5 00 00    	imul   $0xd566,%eax,%eax
    18b2:	89 44 24 18          	mov    %eax,0x18(%rsp)
    18b6:	8b 44 24 18          	mov    0x18(%rsp),%eax
    18ba:	69 c0 37 51 00 00    	imul   $0x5137,%eax,%eax
    18c0:	89 44 24 18          	mov    %eax,0x18(%rsp)
    18c4:	8b 04 24             	mov    (%rsp),%eax
    18c7:	69 c0 5f 82 00 00    	imul   $0x825f,%eax,%eax
    18cd:	89 04 24             	mov    %eax,(%rsp)
    18d0:	8b 44 24 1c          	mov    0x1c(%rsp),%eax
    18d4:	69 c0 82 70 00 00    	imul   $0x7082,%eax,%eax
    18da:	89 44 24 1c          	mov    %eax,0x1c(%rsp)
    18de:	8b 44 24 14          	mov    0x14(%rsp),%eax
    18e2:	69 c0 77 07 00 00    	imul   $0x777,%eax,%eax
    18e8:	89 44 24 14          	mov    %eax,0x14(%rsp)
    18ec:	8b 44 24 04          	mov    0x4(%rsp),%eax
    18f0:	69 c0 e8 f8 00 00    	imul   $0xf8e8,%eax,%eax
    18f6:	89 44 24 04          	mov    %eax,0x4(%rsp)
    18fa:	8b 44 24 14          	mov    0x14(%rsp),%eax
    18fe:	69 c0 a0 87 00 00    	imul   $0x87a0,%eax,%eax
    1904:	89 44 24 14          	mov    %eax,0x14(%rsp)
    1908:	8b 44 24 04          	mov    0x4(%rsp),%eax
    190c:	69 c0 5d 25 00 00    	imul   $0x255d,%eax,%eax
    1912:	89 44 24 04          	mov    %eax,0x4(%rsp)
    1916:	8b 44 24 24          	mov    0x24(%rsp),%eax
    191a:	69 c0 a1 78 00 00    	imul   $0x78a1,%eax,%eax
    1920:	89 44 24 24          	mov    %eax,0x24(%rsp)
    1924:	8b 44 24 24          	mov    0x24(%rsp),%eax
    1928:	69 c0 61 06 00 00    	imul   $0x661,%eax,%eax
    192e:	89 44 24 24          	mov    %eax,0x24(%rsp)
    1932:	8b 44 24 1c          	mov    0x1c(%rsp),%eax
    1936:	69 c0 4e 67 00 00    	imul   $0x674e,%eax,%eax
    193c:	89 44 24 1c          	mov    %eax,0x1c(%rsp)
    1940:	8b 44 24 1c          	mov    0x1c(%rsp),%eax
    1944:	69 c0 a7 5e 00 00    	imul   $0x5ea7,%eax,%eax
    194a:	89 44 24 1c          	mov    %eax,0x1c(%rsp)
    194e:	8b 04 24             	mov    (%rsp),%eax
    1951:	69 c0 6c 20 00 00    	imul   $0x206c,%eax,%eax
    1957:	89 04 24             	mov    %eax,(%rsp)
    195a:	8b 04 24             	mov    (%rsp),%eax
    195d:	69 c0 24 52 00 00    	imul   $0x5224,%eax,%eax
    1963:	89 04 24             	mov    %eax,(%rsp)
    1966:	8b 44 24 04          	mov    0x4(%rsp),%eax
    196a:	69 c0 76 9b 00 00    	imul   $0x9b76,%eax,%eax
    1970:	89 44 24 04          	mov    %eax,0x4(%rsp)
    1974:	ba 00 00 00 00       	mov    $0x0,%edx
    1979:	b8 00 00 00 00       	mov    $0x0,%eax
    197e:	eb 0a                	jmp    198a <scramble+0x48c>
    1980:	89 d1                	mov    %edx,%ecx
    1982:	8b 0c 8c             	mov    (%rsp,%rcx,4),%ecx
    1985:	01 c8                	add    %ecx,%eax
    1987:	83 c2 01             	add    $0x1,%edx
    198a:	83 fa 09             	cmp    $0x9,%edx
    198d:	76 f1                	jbe    1980 <scramble+0x482>
    198f:	48 8b 74 24 28       	mov    0x28(%rsp),%rsi
    1994:	64 48 33 34 25 28 00 	xor    %fs:0x28,%rsi
    199b:	00 00 
    199d:	75 05                	jne    19a4 <scramble+0x4a6>
    199f:	48 83 c4 38          	add    $0x38,%rsp
    19a3:	c3                   	retq   
    19a4:	e8 b7 f4 ff ff       	callq  e60 <__stack_chk_fail@plt>

00000000000019a9 <getbuf>:
    19a9:	48 83 ec 18          	sub    $0x18,%rsp
    19ad:	48 89 e7             	mov    %rsp,%rdi
    19b0:	e8 b3 03 00 00       	callq  1d68 <Gets>
    19b5:	b8 01 00 00 00       	mov    $0x1,%eax
    19ba:	48 83 c4 18          	add    $0x18,%rsp
    19be:	c3                   	retq   

00000000000019bf <touch1>:
    19bf:	48 83 ec 08          	sub    $0x8,%rsp
    19c3:	c7 05 0f 3a 20 00 01 	movl   $0x1,0x203a0f(%rip)        # 2053dc <vlevel>
    19ca:	00 00 00 
    19cd:	48 8d 3d 4e 1a 00 00 	lea    0x1a4e(%rip),%rdi        # 3422 <_IO_stdin_used+0x292>
    19d4:	e8 67 f4 ff ff       	callq  e40 <puts@plt>
    19d9:	bf 01 00 00 00       	mov    $0x1,%edi
    19de:	e8 f5 05 00 00       	callq  1fd8 <validate>
    19e3:	bf 00 00 00 00       	mov    $0x0,%edi
    19e8:	e8 c3 f5 ff ff       	callq  fb0 <exit@plt>

00000000000019ed <touch2>:
    19ed:	48 83 ec 08          	sub    $0x8,%rsp
    19f1:	89 fa                	mov    %edi,%edx
    19f3:	c7 05 df 39 20 00 02 	movl   $0x2,0x2039df(%rip)        # 2053dc <vlevel>
    19fa:	00 00 00 
    19fd:	39 3d e1 39 20 00    	cmp    %edi,0x2039e1(%rip)        # 2053e4 <cookie>
    1a03:	74 2a                	je     1a2f <touch2+0x42>
    1a05:	48 8d 35 64 1a 00 00 	lea    0x1a64(%rip),%rsi        # 3470 <_IO_stdin_used+0x2e0>
    1a0c:	bf 01 00 00 00       	mov    $0x1,%edi
    1a11:	b8 00 00 00 00       	mov    $0x0,%eax
    1a16:	e8 45 f5 ff ff       	callq  f60 <__printf_chk@plt>
    1a1b:	bf 02 00 00 00       	mov    $0x2,%edi
    1a20:	e8 83 06 00 00       	callq  20a8 <fail>
    1a25:	bf 00 00 00 00       	mov    $0x0,%edi
    1a2a:	e8 81 f5 ff ff       	callq  fb0 <exit@plt>
    1a2f:	48 8d 35 12 1a 00 00 	lea    0x1a12(%rip),%rsi        # 3448 <_IO_stdin_used+0x2b8>
    1a36:	bf 01 00 00 00       	mov    $0x1,%edi
    1a3b:	b8 00 00 00 00       	mov    $0x0,%eax
    1a40:	e8 1b f5 ff ff       	callq  f60 <__printf_chk@plt>
    1a45:	bf 02 00 00 00       	mov    $0x2,%edi
    1a4a:	e8 89 05 00 00       	callq  1fd8 <validate>
    1a4f:	eb d4                	jmp    1a25 <touch2+0x38>

0000000000001a51 <hexmatch>:
    1a51:	41 54                	push   %r12
    1a53:	55                   	push   %rbp
    1a54:	53                   	push   %rbx
    1a55:	48 83 c4 80          	add    $0xffffffffffffff80,%rsp
    1a59:	89 fd                	mov    %edi,%ebp
    1a5b:	48 89 f3             	mov    %rsi,%rbx
    1a5e:	64 48 8b 04 25 28 00 	mov    %fs:0x28,%rax
    1a65:	00 00 
    1a67:	48 89 44 24 78       	mov    %rax,0x78(%rsp)
    1a6c:	31 c0                	xor    %eax,%eax
    1a6e:	e8 ad f4 ff ff       	callq  f20 <random@plt>
    1a73:	48 89 c1             	mov    %rax,%rcx
    1a76:	48 ba 0b d7 a3 70 3d 	movabs $0xa3d70a3d70a3d70b,%rdx
    1a7d:	0a d7 a3 
    1a80:	48 f7 ea             	imul   %rdx
    1a83:	48 01 ca             	add    %rcx,%rdx
    1a86:	48 c1 fa 06          	sar    $0x6,%rdx
    1a8a:	48 89 c8             	mov    %rcx,%rax
    1a8d:	48 c1 f8 3f          	sar    $0x3f,%rax
    1a91:	48 29 c2             	sub    %rax,%rdx
    1a94:	48 8d 04 92          	lea    (%rdx,%rdx,4),%rax
    1a98:	48 8d 14 80          	lea    (%rax,%rax,4),%rdx
    1a9c:	48 8d 04 95 00 00 00 	lea    0x0(,%rdx,4),%rax
    1aa3:	00 
    1aa4:	48 29 c1             	sub    %rax,%rcx
    1aa7:	4c 8d 24 0c          	lea    (%rsp,%rcx,1),%r12
    1aab:	41 89 e8             	mov    %ebp,%r8d
    1aae:	48 8d 0d 8a 19 00 00 	lea    0x198a(%rip),%rcx        # 343f <_IO_stdin_used+0x2af>
    1ab5:	48 c7 c2 ff ff ff ff 	mov    $0xffffffffffffffff,%rdx
    1abc:	be 01 00 00 00       	mov    $0x1,%esi
    1ac1:	4c 89 e7             	mov    %r12,%rdi
    1ac4:	b8 00 00 00 00       	mov    $0x0,%eax
    1ac9:	e8 12 f5 ff ff       	callq  fe0 <__sprintf_chk@plt>
    1ace:	ba 09 00 00 00       	mov    $0x9,%edx
    1ad3:	4c 89 e6             	mov    %r12,%rsi
    1ad6:	48 89 df             	mov    %rbx,%rdi
    1ad9:	e8 42 f3 ff ff       	callq  e20 <strncmp@plt>
    1ade:	85 c0                	test   %eax,%eax
    1ae0:	0f 94 c0             	sete   %al
    1ae3:	48 8b 5c 24 78       	mov    0x78(%rsp),%rbx
    1ae8:	64 48 33 1c 25 28 00 	xor    %fs:0x28,%rbx
    1aef:	00 00 
    1af1:	75 0c                	jne    1aff <hexmatch+0xae>
    1af3:	0f b6 c0             	movzbl %al,%eax
    1af6:	48 83 ec 80          	sub    $0xffffffffffffff80,%rsp
    1afa:	5b                   	pop    %rbx
    1afb:	5d                   	pop    %rbp
    1afc:	41 5c                	pop    %r12
    1afe:	c3                   	retq   
    1aff:	e8 5c f3 ff ff       	callq  e60 <__stack_chk_fail@plt>

0000000000001b04 <touch3>:
    1b04:	53                   	push   %rbx
    1b05:	48 89 fb             	mov    %rdi,%rbx
    1b08:	c7 05 ca 38 20 00 03 	movl   $0x3,0x2038ca(%rip)        # 2053dc <vlevel>
    1b0f:	00 00 00 
    1b12:	48 89 fe             	mov    %rdi,%rsi
    1b15:	8b 3d c9 38 20 00    	mov    0x2038c9(%rip),%edi        # 2053e4 <cookie>
    1b1b:	e8 31 ff ff ff       	callq  1a51 <hexmatch>
    1b20:	85 c0                	test   %eax,%eax
    1b22:	74 2d                	je     1b51 <touch3+0x4d>
    1b24:	48 89 da             	mov    %rbx,%rdx
    1b27:	48 8d 35 6a 19 00 00 	lea    0x196a(%rip),%rsi        # 3498 <_IO_stdin_used+0x308>
    1b2e:	bf 01 00 00 00       	mov    $0x1,%edi
    1b33:	b8 00 00 00 00       	mov    $0x0,%eax
    1b38:	e8 23 f4 ff ff       	callq  f60 <__printf_chk@plt>
    1b3d:	bf 03 00 00 00       	mov    $0x3,%edi
    1b42:	e8 91 04 00 00       	callq  1fd8 <validate>
    1b47:	bf 00 00 00 00       	mov    $0x0,%edi
    1b4c:	e8 5f f4 ff ff       	callq  fb0 <exit@plt>
    1b51:	48 89 da             	mov    %rbx,%rdx
    1b54:	48 8d 35 65 19 00 00 	lea    0x1965(%rip),%rsi        # 34c0 <_IO_stdin_used+0x330>
    1b5b:	bf 01 00 00 00       	mov    $0x1,%edi
    1b60:	b8 00 00 00 00       	mov    $0x0,%eax
    1b65:	e8 f6 f3 ff ff       	callq  f60 <__printf_chk@plt>
    1b6a:	bf 03 00 00 00       	mov    $0x3,%edi
    1b6f:	e8 34 05 00 00       	callq  20a8 <fail>
    1b74:	eb d1                	jmp    1b47 <touch3+0x43>

0000000000001b76 <test>:
    1b76:	48 83 ec 08          	sub    $0x8,%rsp
    1b7a:	b8 00 00 00 00       	mov    $0x0,%eax
    1b7f:	e8 25 fe ff ff       	callq  19a9 <getbuf>
    1b84:	89 c2                	mov    %eax,%edx
    1b86:	48 8d 35 5b 19 00 00 	lea    0x195b(%rip),%rsi        # 34e8 <_IO_stdin_used+0x358>
    1b8d:	bf 01 00 00 00       	mov    $0x1,%edi
    1b92:	b8 00 00 00 00       	mov    $0x0,%eax
    1b97:	e8 c4 f3 ff ff       	callq  f60 <__printf_chk@plt>
    1b9c:	48 83 c4 08          	add    $0x8,%rsp
    1ba0:	c3                   	retq   

0000000000001ba1 <start_farm>:
    1ba1:	b8 01 00 00 00       	mov    $0x1,%eax
    1ba6:	c3                   	retq   

0000000000001ba7 <addval_375>:
    1ba7:	8d 87 48 89 c7 c7    	lea    -0x383876b8(%rdi),%eax
    1bad:	c3                   	retq   

0000000000001bae <getval_382>:
    1bae:	b8 58 90 90 90       	mov    $0x90909058,%eax
    1bb3:	c3                   	retq   

0000000000001bb4 <addval_224>:
    1bb4:	8d 87 80 50 0e 50    	lea    0x500e5080(%rdi),%eax
    1bba:	c3                   	retq   

0000000000001bbb <setval_174>:
    1bbb:	c7 07 3f 58 c3 19    	movl   $0x19c3583f,(%rdi)
    1bc1:	c3                   	retq   

0000000000001bc2 <getval_426>:
    1bc2:	b8 48 89 c7 c3       	mov    $0xc3c78948,%eax
    1bc7:	c3                   	retq   

0000000000001bc8 <addval_400>:
    1bc8:	8d 87 4c 58 92 c3    	lea    -0x3c6da7b4(%rdi),%eax
    1bce:	c3                   	retq   

0000000000001bcf <addval_262>:
    1bcf:	8d 87 d6 48 89 c7    	lea    -0x3876b72a(%rdi),%eax
    1bd5:	c3                   	retq   

0000000000001bd6 <getval_440>:
    1bd6:	b8 48 89 c7 94       	mov    $0x94c78948,%eax
    1bdb:	c3                   	retq   

0000000000001bdc <mid_farm>:
    1bdc:	b8 01 00 00 00       	mov    $0x1,%eax
    1be1:	c3                   	retq   

0000000000001be2 <add_xy>:
    1be2:	48 8d 04 37          	lea    (%rdi,%rsi,1),%rax
    1be6:	c3                   	retq   

0000000000001be7 <getval_104>:
    1be7:	b8 89 d6 94 90       	mov    $0x9094d689,%eax
    1bec:	c3                   	retq   

0000000000001bed <setval_289>:
    1bed:	c7 07 89 ca 38 d2    	movl   $0xd238ca89,(%rdi)
    1bf3:	c3                   	retq   

0000000000001bf4 <addval_155>:
    1bf4:	8d 87 c9 d6 c3 43    	lea    0x43c3d6c9(%rdi),%eax
    1bfa:	c3                   	retq   

0000000000001bfb <getval_338>:
    1bfb:	b8 88 ca c3 28       	mov    $0x28c3ca88,%eax
    1c00:	c3                   	retq   

0000000000001c01 <getval_259>:
    1c01:	b8 89 ca 90 c3       	mov    $0xc390ca89,%eax
    1c06:	c3                   	retq   

0000000000001c07 <setval_343>:
    1c07:	c7 07 81 ca 08 d2    	movl   $0xd208ca81,(%rdi)
    1c0d:	c3                   	retq   

0000000000001c0e <addval_163>:
    1c0e:	8d 87 a9 c1 90 90    	lea    -0x6f6f3e57(%rdi),%eax
    1c14:	c3                   	retq   

0000000000001c15 <getval_484>:
    1c15:	b8 48 89 e0 91       	mov    $0x91e08948,%eax
    1c1a:	c3                   	retq   

0000000000001c1b <addval_394>:
    1c1b:	8d 87 09 ca 38 db    	lea    -0x24c735f7(%rdi),%eax
    1c21:	c3                   	retq   

0000000000001c22 <addval_249>:
    1c22:	8d 87 48 89 e0 91    	lea    -0x6e1f76b8(%rdi),%eax
    1c28:	c3                   	retq   

0000000000001c29 <getval_470>:
    1c29:	b8 33 48 89 e0       	mov    $0xe0894833,%eax
    1c2e:	c3                   	retq   

0000000000001c2f <getval_391>:
    1c2f:	b8 8d d6 08 d2       	mov    $0xd208d68d,%eax
    1c34:	c3                   	retq   

0000000000001c35 <setval_415>:
    1c35:	c7 07 89 ca 18 c9    	movl   $0xc918ca89,(%rdi)
    1c3b:	c3                   	retq   

0000000000001c3c <getval_398>:
    1c3c:	b8 48 89 e0 94       	mov    $0x94e08948,%eax
    1c41:	c3                   	retq   

0000000000001c42 <setval_119>:
    1c42:	c7 07 89 ca 48 db    	movl   $0xdb48ca89,(%rdi)
    1c48:	c3                   	retq   

0000000000001c49 <getval_123>:
    1c49:	b8 8d d6 08 c9       	mov    $0xc908d68d,%eax
    1c4e:	c3                   	retq   

0000000000001c4f <getval_127>:
    1c4f:	b8 8b d6 08 c0       	mov    $0xc008d68b,%eax
    1c54:	c3                   	retq   

0000000000001c55 <setval_275>:
    1c55:	c7 07 92 89 c1 90    	movl   $0x90c18992,(%rdi)
    1c5b:	c3                   	retq   

0000000000001c5c <setval_218>:
    1c5c:	c7 07 41 48 89 e0    	movl   $0xe0894841,(%rdi)
    1c62:	c3                   	retq   

0000000000001c63 <getval_183>:
    1c63:	b8 48 89 e0 91       	mov    $0x91e08948,%eax
    1c68:	c3                   	retq   

0000000000001c69 <getval_241>:
    1c69:	b8 89 c1 48 db       	mov    $0xdb48c189,%eax
    1c6e:	c3                   	retq   

0000000000001c6f <addval_177>:
    1c6f:	8d 87 89 d6 c4 c0    	lea    -0x3f3b2977(%rdi),%eax
    1c75:	c3                   	retq   

0000000000001c76 <addval_468>:
    1c76:	8d 87 89 c1 20 d2    	lea    -0x2ddf3e77(%rdi),%eax
    1c7c:	c3                   	retq   

0000000000001c7d <setval_411>:
    1c7d:	c7 07 5b f8 a9 ca    	movl   $0xcaa9f85b,(%rdi)
    1c83:	c3                   	retq   

0000000000001c84 <getval_451>:
    1c84:	b8 ee 48 c9 e0       	mov    $0xe0c948ee,%eax
    1c89:	c3                   	retq   

0000000000001c8a <addval_209>:
    1c8a:	8d 87 89 c1 30 db    	lea    -0x24cf3e77(%rdi),%eax
    1c90:	c3                   	retq   

0000000000001c91 <setval_399>:
    1c91:	c7 07 89 d6 38 db    	movl   $0xdb38d689,(%rdi)
    1c97:	c3                   	retq   

0000000000001c98 <getval_419>:
    1c98:	b8 48 89 e0 c7       	mov    $0xc7e08948,%eax
    1c9d:	c3                   	retq   

0000000000001c9e <setval_172>:
    1c9e:	c7 07 66 89 c1 c1    	movl   $0xc1c18966,(%rdi)
    1ca4:	c3                   	retq   

0000000000001ca5 <addval_464>:
    1ca5:	8d 87 89 c1 94 90    	lea    -0x6f6b3e77(%rdi),%eax
    1cab:	c3                   	retq   

0000000000001cac <setval_323>:
    1cac:	c7 07 09 c1 20 db    	movl   $0xdb20c109,(%rdi)
    1cb2:	c3                   	retq   

0000000000001cb3 <addval_441>:
    1cb3:	8d 87 89 d6 38 db    	lea    -0x24c72977(%rdi),%eax
    1cb9:	c3                   	retq   

0000000000001cba <end_farm>:
    1cba:	b8 01 00 00 00       	mov    $0x1,%eax
    1cbf:	c3                   	retq   

0000000000001cc0 <save_char>:
    1cc0:	8b 05 3e 43 20 00    	mov    0x20433e(%rip),%eax        # 206004 <gets_cnt>
    1cc6:	3d ff 03 00 00       	cmp    $0x3ff,%eax
    1ccb:	7f 4a                	jg     1d17 <save_char+0x57>
    1ccd:	89 f9                	mov    %edi,%ecx
    1ccf:	c0 e9 04             	shr    $0x4,%cl
    1cd2:	8d 14 40             	lea    (%rax,%rax,2),%edx
    1cd5:	4c 8d 05 34 1b 00 00 	lea    0x1b34(%rip),%r8        # 3810 <trans_char>
    1cdc:	83 e1 0f             	and    $0xf,%ecx
    1cdf:	45 0f b6 0c 08       	movzbl (%r8,%rcx,1),%r9d
    1ce4:	48 8d 0d 15 37 20 00 	lea    0x203715(%rip),%rcx        # 205400 <gets_buf>
    1ceb:	48 63 f2             	movslq %edx,%rsi
    1cee:	44 88 0c 31          	mov    %r9b,(%rcx,%rsi,1)
    1cf2:	8d 72 01             	lea    0x1(%rdx),%esi
    1cf5:	83 e7 0f             	and    $0xf,%edi
    1cf8:	41 0f b6 3c 38       	movzbl (%r8,%rdi,1),%edi
    1cfd:	48 63 f6             	movslq %esi,%rsi
    1d00:	40 88 3c 31          	mov    %dil,(%rcx,%rsi,1)
    1d04:	83 c2 02             	add    $0x2,%edx
    1d07:	48 63 d2             	movslq %edx,%rdx
    1d0a:	c6 04 11 20          	movb   $0x20,(%rcx,%rdx,1)
    1d0e:	83 c0 01             	add    $0x1,%eax
    1d11:	89 05 ed 42 20 00    	mov    %eax,0x2042ed(%rip)        # 206004 <gets_cnt>
    1d17:	f3 c3                	repz retq 

0000000000001d19 <save_term>:
    1d19:	8b 05 e5 42 20 00    	mov    0x2042e5(%rip),%eax        # 206004 <gets_cnt>
    1d1f:	8d 04 40             	lea    (%rax,%rax,2),%eax
    1d22:	48 98                	cltq   
    1d24:	48 8d 15 d5 36 20 00 	lea    0x2036d5(%rip),%rdx        # 205400 <gets_buf>
    1d2b:	c6 04 02 00          	movb   $0x0,(%rdx,%rax,1)
    1d2f:	c3                   	retq   

0000000000001d30 <check_fail>:
    1d30:	48 83 ec 08          	sub    $0x8,%rsp
    1d34:	0f be 15 31 36 20 00 	movsbl 0x203631(%rip),%edx        # 20536c <target_prefix>
    1d3b:	4c 8d 05 be 36 20 00 	lea    0x2036be(%rip),%r8        # 205400 <gets_buf>
    1d42:	8b 0d 90 36 20 00    	mov    0x203690(%rip),%ecx        # 2053d8 <check_level>
    1d48:	48 8d 35 bc 17 00 00 	lea    0x17bc(%rip),%rsi        # 350b <_IO_stdin_used+0x37b>
    1d4f:	bf 01 00 00 00       	mov    $0x1,%edi
    1d54:	b8 00 00 00 00       	mov    $0x0,%eax
    1d59:	e8 02 f2 ff ff       	callq  f60 <__printf_chk@plt>
    1d5e:	bf 01 00 00 00       	mov    $0x1,%edi
    1d63:	e8 48 f2 ff ff       	callq  fb0 <exit@plt>

0000000000001d68 <Gets>:
    1d68:	41 54                	push   %r12
    1d6a:	55                   	push   %rbp
    1d6b:	53                   	push   %rbx
    1d6c:	49 89 fc             	mov    %rdi,%r12
    1d6f:	c7 05 8b 42 20 00 00 	movl   $0x0,0x20428b(%rip)        # 206004 <gets_cnt>
    1d76:	00 00 00 
    1d79:	48 89 fb             	mov    %rdi,%rbx
    1d7c:	eb 11                	jmp    1d8f <Gets+0x27>
    1d7e:	48 8d 6b 01          	lea    0x1(%rbx),%rbp
    1d82:	88 03                	mov    %al,(%rbx)
    1d84:	0f b6 f8             	movzbl %al,%edi
    1d87:	e8 34 ff ff ff       	callq  1cc0 <save_char>
    1d8c:	48 89 eb             	mov    %rbp,%rbx
    1d8f:	48 8b 3d 3a 36 20 00 	mov    0x20363a(%rip),%rdi        # 2053d0 <infile>
    1d96:	e8 95 f1 ff ff       	callq  f30 <_IO_getc@plt>
    1d9b:	83 f8 ff             	cmp    $0xffffffff,%eax
    1d9e:	74 05                	je     1da5 <Gets+0x3d>
    1da0:	83 f8 0a             	cmp    $0xa,%eax
    1da3:	75 d9                	jne    1d7e <Gets+0x16>
    1da5:	c6 03 00             	movb   $0x0,(%rbx)
    1da8:	b8 00 00 00 00       	mov    $0x0,%eax
    1dad:	e8 67 ff ff ff       	callq  1d19 <save_term>
    1db2:	4c 89 e0             	mov    %r12,%rax
    1db5:	5b                   	pop    %rbx
    1db6:	5d                   	pop    %rbp
    1db7:	41 5c                	pop    %r12
    1db9:	c3                   	retq   

0000000000001dba <notify_server>:
    1dba:	55                   	push   %rbp
    1dbb:	53                   	push   %rbx
    1dbc:	48 81 ec 18 40 00 00 	sub    $0x4018,%rsp
    1dc3:	64 48 8b 04 25 28 00 	mov    %fs:0x28,%rax
    1dca:	00 00 
    1dcc:	48 89 84 24 08 40 00 	mov    %rax,0x4008(%rsp)
    1dd3:	00 
    1dd4:	31 c0                	xor    %eax,%eax
    1dd6:	83 3d 0b 36 20 00 00 	cmpl   $0x0,0x20360b(%rip)        # 2053e8 <is_checker>
    1ddd:	0f 85 d2 00 00 00    	jne    1eb5 <notify_server+0xfb>
    1de3:	89 fb                	mov    %edi,%ebx
    1de5:	8b 05 19 42 20 00    	mov    0x204219(%rip),%eax        # 206004 <gets_cnt>
    1deb:	83 c0 64             	add    $0x64,%eax
    1dee:	3d 00 20 00 00       	cmp    $0x2000,%eax
    1df3:	0f 8f dd 00 00 00    	jg     1ed6 <notify_server+0x11c>
    1df9:	0f be 05 6c 35 20 00 	movsbl 0x20356c(%rip),%eax        # 20536c <target_prefix>
    1e00:	83 3d 61 35 20 00 00 	cmpl   $0x0,0x203561(%rip)        # 205368 <notify>
    1e07:	0f 84 e9 00 00 00    	je     1ef6 <notify_server+0x13c>
    1e0d:	8b 15 cd 35 20 00    	mov    0x2035cd(%rip),%edx        # 2053e0 <authkey>
    1e13:	85 db                	test   %ebx,%ebx
    1e15:	0f 84 e5 00 00 00    	je     1f00 <notify_server+0x146>
    1e1b:	48 8d 2d ff 16 00 00 	lea    0x16ff(%rip),%rbp        # 3521 <_IO_stdin_used+0x391>
    1e22:	48 89 e7             	mov    %rsp,%rdi
    1e25:	48 8d 0d d4 35 20 00 	lea    0x2035d4(%rip),%rcx        # 205400 <gets_buf>
    1e2c:	51                   	push   %rcx
    1e2d:	56                   	push   %rsi
    1e2e:	50                   	push   %rax
    1e2f:	52                   	push   %rdx
    1e30:	49 89 e9             	mov    %rbp,%r9
    1e33:	44 8b 05 d6 31 20 00 	mov    0x2031d6(%rip),%r8d        # 205010 <target_id>
    1e3a:	48 8d 0d ea 16 00 00 	lea    0x16ea(%rip),%rcx        # 352b <_IO_stdin_used+0x39b>
    1e41:	ba 00 20 00 00       	mov    $0x2000,%edx
    1e46:	be 01 00 00 00       	mov    $0x1,%esi
    1e4b:	b8 00 00 00 00       	mov    $0x0,%eax
    1e50:	e8 8b f1 ff ff       	callq  fe0 <__sprintf_chk@plt>
    1e55:	48 83 c4 20          	add    $0x20,%rsp
    1e59:	83 3d 08 35 20 00 00 	cmpl   $0x0,0x203508(%rip)        # 205368 <notify>
    1e60:	0f 84 df 00 00 00    	je     1f45 <notify_server+0x18b>
    1e66:	85 db                	test   %ebx,%ebx
    1e68:	0f 84 c6 00 00 00    	je     1f34 <notify_server+0x17a>
    1e6e:	48 89 e1             	mov    %rsp,%rcx
    1e71:	4c 8d 8c 24 00 20 00 	lea    0x2000(%rsp),%r9
    1e78:	00 
    1e79:	41 b8 00 00 00 00    	mov    $0x0,%r8d
    1e7f:	48 8b 15 a2 31 20 00 	mov    0x2031a2(%rip),%rdx        # 205028 <lab>
    1e86:	48 8b 35 d3 34 20 00 	mov    0x2034d3(%rip),%rsi        # 205360 <course>
    1e8d:	48 8b 3d 8c 31 20 00 	mov    0x20318c(%rip),%rdi        # 205020 <user_id>
    1e94:	e8 af 11 00 00       	callq  3048 <driver_post>
    1e99:	85 c0                	test   %eax,%eax
    1e9b:	78 6f                	js     1f0c <notify_server+0x152>
    1e9d:	48 8d 3d cc 17 00 00 	lea    0x17cc(%rip),%rdi        # 3670 <_IO_stdin_used+0x4e0>
    1ea4:	e8 97 ef ff ff       	callq  e40 <puts@plt>
    1ea9:	48 8d 3d a3 16 00 00 	lea    0x16a3(%rip),%rdi        # 3553 <_IO_stdin_used+0x3c3>
    1eb0:	e8 8b ef ff ff       	callq  e40 <puts@plt>
    1eb5:	48 8b 84 24 08 40 00 	mov    0x4008(%rsp),%rax
    1ebc:	00 
    1ebd:	64 48 33 04 25 28 00 	xor    %fs:0x28,%rax
    1ec4:	00 00 
    1ec6:	0f 85 07 01 00 00    	jne    1fd3 <notify_server+0x219>
    1ecc:	48 81 c4 18 40 00 00 	add    $0x4018,%rsp
    1ed3:	5b                   	pop    %rbx
    1ed4:	5d                   	pop    %rbp
    1ed5:	c3                   	retq   
    1ed6:	48 8d 35 63 17 00 00 	lea    0x1763(%rip),%rsi        # 3640 <_IO_stdin_used+0x4b0>
    1edd:	bf 01 00 00 00       	mov    $0x1,%edi
    1ee2:	b8 00 00 00 00       	mov    $0x0,%eax
    1ee7:	e8 74 f0 ff ff       	callq  f60 <__printf_chk@plt>
    1eec:	bf 01 00 00 00       	mov    $0x1,%edi
    1ef1:	e8 ba f0 ff ff       	callq  fb0 <exit@plt>
    1ef6:	ba ff ff ff ff       	mov    $0xffffffff,%edx
    1efb:	e9 13 ff ff ff       	jmpq   1e13 <notify_server+0x59>
    1f00:	48 8d 2d 1f 16 00 00 	lea    0x161f(%rip),%rbp        # 3526 <_IO_stdin_used+0x396>
    1f07:	e9 16 ff ff ff       	jmpq   1e22 <notify_server+0x68>
    1f0c:	48 8d 94 24 00 20 00 	lea    0x2000(%rsp),%rdx
    1f13:	00 
    1f14:	48 8d 35 2c 16 00 00 	lea    0x162c(%rip),%rsi        # 3547 <_IO_stdin_used+0x3b7>
    1f1b:	bf 01 00 00 00       	mov    $0x1,%edi
    1f20:	b8 00 00 00 00       	mov    $0x0,%eax
    1f25:	e8 36 f0 ff ff       	callq  f60 <__printf_chk@plt>
    1f2a:	bf 01 00 00 00       	mov    $0x1,%edi
    1f2f:	e8 7c f0 ff ff       	callq  fb0 <exit@plt>
    1f34:	48 8d 3d 22 16 00 00 	lea    0x1622(%rip),%rdi        # 355d <_IO_stdin_used+0x3cd>
    1f3b:	e8 00 ef ff ff       	callq  e40 <puts@plt>
    1f40:	e9 70 ff ff ff       	jmpq   1eb5 <notify_server+0xfb>
    1f45:	48 89 ea             	mov    %rbp,%rdx
    1f48:	48 8d 35 59 17 00 00 	lea    0x1759(%rip),%rsi        # 36a8 <_IO_stdin_used+0x518>
    1f4f:	bf 01 00 00 00       	mov    $0x1,%edi
    1f54:	b8 00 00 00 00       	mov    $0x0,%eax
    1f59:	e8 02 f0 ff ff       	callq  f60 <__printf_chk@plt>
    1f5e:	48 8b 15 bb 30 20 00 	mov    0x2030bb(%rip),%rdx        # 205020 <user_id>
    1f65:	48 8d 35 f8 15 00 00 	lea    0x15f8(%rip),%rsi        # 3564 <_IO_stdin_used+0x3d4>
    1f6c:	bf 01 00 00 00       	mov    $0x1,%edi
    1f71:	b8 00 00 00 00       	mov    $0x0,%eax
    1f76:	e8 e5 ef ff ff       	callq  f60 <__printf_chk@plt>
    1f7b:	48 8b 15 de 33 20 00 	mov    0x2033de(%rip),%rdx        # 205360 <course>
    1f82:	48 8d 35 e8 15 00 00 	lea    0x15e8(%rip),%rsi        # 3571 <_IO_stdin_used+0x3e1>
    1f89:	bf 01 00 00 00       	mov    $0x1,%edi
    1f8e:	b8 00 00 00 00       	mov    $0x0,%eax
    1f93:	e8 c8 ef ff ff       	callq  f60 <__printf_chk@plt>
    1f98:	48 8b 15 89 30 20 00 	mov    0x203089(%rip),%rdx        # 205028 <lab>
    1f9f:	48 8d 35 d7 15 00 00 	lea    0x15d7(%rip),%rsi        # 357d <_IO_stdin_used+0x3ed>
    1fa6:	bf 01 00 00 00       	mov    $0x1,%edi
    1fab:	b8 00 00 00 00       	mov    $0x0,%eax
    1fb0:	e8 ab ef ff ff       	callq  f60 <__printf_chk@plt>
    1fb5:	48 89 e2             	mov    %rsp,%rdx
    1fb8:	48 8d 35 c7 15 00 00 	lea    0x15c7(%rip),%rsi        # 3586 <_IO_stdin_used+0x3f6>
    1fbf:	bf 01 00 00 00       	mov    $0x1,%edi
    1fc4:	b8 00 00 00 00       	mov    $0x0,%eax
    1fc9:	e8 92 ef ff ff       	callq  f60 <__printf_chk@plt>
    1fce:	e9 e2 fe ff ff       	jmpq   1eb5 <notify_server+0xfb>
    1fd3:	e8 88 ee ff ff       	callq  e60 <__stack_chk_fail@plt>

0000000000001fd8 <validate>:
    1fd8:	53                   	push   %rbx
    1fd9:	89 fb                	mov    %edi,%ebx
    1fdb:	83 3d 06 34 20 00 00 	cmpl   $0x0,0x203406(%rip)        # 2053e8 <is_checker>
    1fe2:	74 72                	je     2056 <validate+0x7e>
    1fe4:	39 3d f2 33 20 00    	cmp    %edi,0x2033f2(%rip)        # 2053dc <vlevel>
    1fea:	75 32                	jne    201e <validate+0x46>
    1fec:	8b 15 e6 33 20 00    	mov    0x2033e6(%rip),%edx        # 2053d8 <check_level>
    1ff2:	39 fa                	cmp    %edi,%edx
    1ff4:	75 3e                	jne    2034 <validate+0x5c>
    1ff6:	0f be 15 6f 33 20 00 	movsbl 0x20336f(%rip),%edx        # 20536c <target_prefix>
    1ffd:	4c 8d 05 fc 33 20 00 	lea    0x2033fc(%rip),%r8        # 205400 <gets_buf>
    2004:	89 f9                	mov    %edi,%ecx
    2006:	48 8d 35 a3 15 00 00 	lea    0x15a3(%rip),%rsi        # 35b0 <_IO_stdin_used+0x420>
    200d:	bf 01 00 00 00       	mov    $0x1,%edi
    2012:	b8 00 00 00 00       	mov    $0x0,%eax
    2017:	e8 44 ef ff ff       	callq  f60 <__printf_chk@plt>
    201c:	5b                   	pop    %rbx
    201d:	c3                   	retq   
    201e:	48 8d 3d 6d 15 00 00 	lea    0x156d(%rip),%rdi        # 3592 <_IO_stdin_used+0x402>
    2025:	e8 16 ee ff ff       	callq  e40 <puts@plt>
    202a:	b8 00 00 00 00       	mov    $0x0,%eax
    202f:	e8 fc fc ff ff       	callq  1d30 <check_fail>
    2034:	89 f9                	mov    %edi,%ecx
    2036:	48 8d 35 93 16 00 00 	lea    0x1693(%rip),%rsi        # 36d0 <_IO_stdin_used+0x540>
    203d:	bf 01 00 00 00       	mov    $0x1,%edi
    2042:	b8 00 00 00 00       	mov    $0x0,%eax
    2047:	e8 14 ef ff ff       	callq  f60 <__printf_chk@plt>
    204c:	b8 00 00 00 00       	mov    $0x0,%eax
    2051:	e8 da fc ff ff       	callq  1d30 <check_fail>
    2056:	39 3d 80 33 20 00    	cmp    %edi,0x203380(%rip)        # 2053dc <vlevel>
    205c:	74 1a                	je     2078 <validate+0xa0>
    205e:	48 8d 3d 2d 15 00 00 	lea    0x152d(%rip),%rdi        # 3592 <_IO_stdin_used+0x402>
    2065:	e8 d6 ed ff ff       	callq  e40 <puts@plt>
    206a:	89 de                	mov    %ebx,%esi
    206c:	bf 00 00 00 00       	mov    $0x0,%edi
    2071:	e8 44 fd ff ff       	callq  1dba <notify_server>
    2076:	eb a4                	jmp    201c <validate+0x44>
    2078:	0f be 0d ed 32 20 00 	movsbl 0x2032ed(%rip),%ecx        # 20536c <target_prefix>
    207f:	89 fa                	mov    %edi,%edx
    2081:	48 8d 35 70 16 00 00 	lea    0x1670(%rip),%rsi        # 36f8 <_IO_stdin_used+0x568>
    2088:	bf 01 00 00 00       	mov    $0x1,%edi
    208d:	b8 00 00 00 00       	mov    $0x0,%eax
    2092:	e8 c9 ee ff ff       	callq  f60 <__printf_chk@plt>
    2097:	89 de                	mov    %ebx,%esi
    2099:	bf 01 00 00 00       	mov    $0x1,%edi
    209e:	e8 17 fd ff ff       	callq  1dba <notify_server>
    20a3:	e9 74 ff ff ff       	jmpq   201c <validate+0x44>

00000000000020a8 <fail>:
    20a8:	48 83 ec 08          	sub    $0x8,%rsp
    20ac:	83 3d 35 33 20 00 00 	cmpl   $0x0,0x203335(%rip)        # 2053e8 <is_checker>
    20b3:	75 11                	jne    20c6 <fail+0x1e>
    20b5:	89 fe                	mov    %edi,%esi
    20b7:	bf 00 00 00 00       	mov    $0x0,%edi
    20bc:	e8 f9 fc ff ff       	callq  1dba <notify_server>
    20c1:	48 83 c4 08          	add    $0x8,%rsp
    20c5:	c3                   	retq   
    20c6:	b8 00 00 00 00       	mov    $0x0,%eax
    20cb:	e8 60 fc ff ff       	callq  1d30 <check_fail>

00000000000020d0 <bushandler>:
    20d0:	48 83 ec 08          	sub    $0x8,%rsp
    20d4:	83 3d 0d 33 20 00 00 	cmpl   $0x0,0x20330d(%rip)        # 2053e8 <is_checker>
    20db:	74 16                	je     20f3 <bushandler+0x23>
    20dd:	48 8d 3d e1 14 00 00 	lea    0x14e1(%rip),%rdi        # 35c5 <_IO_stdin_used+0x435>
    20e4:	e8 57 ed ff ff       	callq  e40 <puts@plt>
    20e9:	b8 00 00 00 00       	mov    $0x0,%eax
    20ee:	e8 3d fc ff ff       	callq  1d30 <check_fail>
    20f3:	48 8d 3d 36 16 00 00 	lea    0x1636(%rip),%rdi        # 3730 <_IO_stdin_used+0x5a0>
    20fa:	e8 41 ed ff ff       	callq  e40 <puts@plt>
    20ff:	48 8d 3d c9 14 00 00 	lea    0x14c9(%rip),%rdi        # 35cf <_IO_stdin_used+0x43f>
    2106:	e8 35 ed ff ff       	callq  e40 <puts@plt>
    210b:	be 00 00 00 00       	mov    $0x0,%esi
    2110:	bf 00 00 00 00       	mov    $0x0,%edi
    2115:	e8 a0 fc ff ff       	callq  1dba <notify_server>
    211a:	bf 01 00 00 00       	mov    $0x1,%edi
    211f:	e8 8c ee ff ff       	callq  fb0 <exit@plt>

0000000000002124 <seghandler>:
    2124:	48 83 ec 08          	sub    $0x8,%rsp
    2128:	83 3d b9 32 20 00 00 	cmpl   $0x0,0x2032b9(%rip)        # 2053e8 <is_checker>
    212f:	74 16                	je     2147 <seghandler+0x23>
    2131:	48 8d 3d ad 14 00 00 	lea    0x14ad(%rip),%rdi        # 35e5 <_IO_stdin_used+0x455>
    2138:	e8 03 ed ff ff       	callq  e40 <puts@plt>
    213d:	b8 00 00 00 00       	mov    $0x0,%eax
    2142:	e8 e9 fb ff ff       	callq  1d30 <check_fail>
    2147:	48 8d 3d 02 16 00 00 	lea    0x1602(%rip),%rdi        # 3750 <_IO_stdin_used+0x5c0>
    214e:	e8 ed ec ff ff       	callq  e40 <puts@plt>
    2153:	48 8d 3d 75 14 00 00 	lea    0x1475(%rip),%rdi        # 35cf <_IO_stdin_used+0x43f>
    215a:	e8 e1 ec ff ff       	callq  e40 <puts@plt>
    215f:	be 00 00 00 00       	mov    $0x0,%esi
    2164:	bf 00 00 00 00       	mov    $0x0,%edi
    2169:	e8 4c fc ff ff       	callq  1dba <notify_server>
    216e:	bf 01 00 00 00       	mov    $0x1,%edi
    2173:	e8 38 ee ff ff       	callq  fb0 <exit@plt>

0000000000002178 <illegalhandler>:
    2178:	48 83 ec 08          	sub    $0x8,%rsp
    217c:	83 3d 65 32 20 00 00 	cmpl   $0x0,0x203265(%rip)        # 2053e8 <is_checker>
    2183:	74 16                	je     219b <illegalhandler+0x23>
    2185:	48 8d 3d 6c 14 00 00 	lea    0x146c(%rip),%rdi        # 35f8 <_IO_stdin_used+0x468>
    218c:	e8 af ec ff ff       	callq  e40 <puts@plt>
    2191:	b8 00 00 00 00       	mov    $0x0,%eax
    2196:	e8 95 fb ff ff       	callq  1d30 <check_fail>
    219b:	48 8d 3d d6 15 00 00 	lea    0x15d6(%rip),%rdi        # 3778 <_IO_stdin_used+0x5e8>
    21a2:	e8 99 ec ff ff       	callq  e40 <puts@plt>
    21a7:	48 8d 3d 21 14 00 00 	lea    0x1421(%rip),%rdi        # 35cf <_IO_stdin_used+0x43f>
    21ae:	e8 8d ec ff ff       	callq  e40 <puts@plt>
    21b3:	be 00 00 00 00       	mov    $0x0,%esi
    21b8:	bf 00 00 00 00       	mov    $0x0,%edi
    21bd:	e8 f8 fb ff ff       	callq  1dba <notify_server>
    21c2:	bf 01 00 00 00       	mov    $0x1,%edi
    21c7:	e8 e4 ed ff ff       	callq  fb0 <exit@plt>

00000000000021cc <sigalrmhandler>:
    21cc:	48 83 ec 08          	sub    $0x8,%rsp
    21d0:	83 3d 11 32 20 00 00 	cmpl   $0x0,0x203211(%rip)        # 2053e8 <is_checker>
    21d7:	74 16                	je     21ef <sigalrmhandler+0x23>
    21d9:	48 8d 3d 2c 14 00 00 	lea    0x142c(%rip),%rdi        # 360c <_IO_stdin_used+0x47c>
    21e0:	e8 5b ec ff ff       	callq  e40 <puts@plt>
    21e5:	b8 00 00 00 00       	mov    $0x0,%eax
    21ea:	e8 41 fb ff ff       	callq  1d30 <check_fail>
    21ef:	ba 05 00 00 00       	mov    $0x5,%edx
    21f4:	48 8d 35 ad 15 00 00 	lea    0x15ad(%rip),%rsi        # 37a8 <_IO_stdin_used+0x618>
    21fb:	bf 01 00 00 00       	mov    $0x1,%edi
    2200:	b8 00 00 00 00       	mov    $0x0,%eax
    2205:	e8 56 ed ff ff       	callq  f60 <__printf_chk@plt>
    220a:	be 00 00 00 00       	mov    $0x0,%esi
    220f:	bf 00 00 00 00       	mov    $0x0,%edi
    2214:	e8 a1 fb ff ff       	callq  1dba <notify_server>
    2219:	bf 01 00 00 00       	mov    $0x1,%edi
    221e:	e8 8d ed ff ff       	callq  fb0 <exit@plt>

0000000000002223 <launch>:
    2223:	55                   	push   %rbp
    2224:	48 89 e5             	mov    %rsp,%rbp
    2227:	48 83 ec 10          	sub    $0x10,%rsp
    222b:	48 89 fa             	mov    %rdi,%rdx
    222e:	64 48 8b 04 25 28 00 	mov    %fs:0x28,%rax
    2235:	00 00 
    2237:	48 89 45 f8          	mov    %rax,-0x8(%rbp)
    223b:	31 c0                	xor    %eax,%eax
    223d:	48 8d 47 1e          	lea    0x1e(%rdi),%rax
    2241:	48 83 e0 f0          	and    $0xfffffffffffffff0,%rax
    2245:	48 29 c4             	sub    %rax,%rsp
    2248:	48 8d 7c 24 0f       	lea    0xf(%rsp),%rdi
    224d:	48 83 e7 f0          	and    $0xfffffffffffffff0,%rdi
    2251:	be f4 00 00 00       	mov    $0xf4,%esi
    2256:	e8 25 ec ff ff       	callq  e80 <memset@plt>
    225b:	48 8b 05 1e 31 20 00 	mov    0x20311e(%rip),%rax        # 205380 <stdin@@GLIBC_2.2.5>
    2262:	48 39 05 67 31 20 00 	cmp    %rax,0x203167(%rip)        # 2053d0 <infile>
    2269:	74 3a                	je     22a5 <launch+0x82>
    226b:	c7 05 67 31 20 00 00 	movl   $0x0,0x203167(%rip)        # 2053dc <vlevel>
    2272:	00 00 00 
    2275:	b8 00 00 00 00       	mov    $0x0,%eax
    227a:	e8 f7 f8 ff ff       	callq  1b76 <test>
    227f:	83 3d 62 31 20 00 00 	cmpl   $0x0,0x203162(%rip)        # 2053e8 <is_checker>
    2286:	75 35                	jne    22bd <launch+0x9a>
    2288:	48 8d 3d 9d 13 00 00 	lea    0x139d(%rip),%rdi        # 362c <_IO_stdin_used+0x49c>
    228f:	e8 ac eb ff ff       	callq  e40 <puts@plt>
    2294:	48 8b 45 f8          	mov    -0x8(%rbp),%rax
    2298:	64 48 33 04 25 28 00 	xor    %fs:0x28,%rax
    229f:	00 00 
    22a1:	75 30                	jne    22d3 <launch+0xb0>
    22a3:	c9                   	leaveq 
    22a4:	c3                   	retq   
    22a5:	48 8d 35 68 13 00 00 	lea    0x1368(%rip),%rsi        # 3614 <_IO_stdin_used+0x484>
    22ac:	bf 01 00 00 00       	mov    $0x1,%edi
    22b1:	b8 00 00 00 00       	mov    $0x0,%eax
    22b6:	e8 a5 ec ff ff       	callq  f60 <__printf_chk@plt>
    22bb:	eb ae                	jmp    226b <launch+0x48>
    22bd:	48 8d 3d 5d 13 00 00 	lea    0x135d(%rip),%rdi        # 3621 <_IO_stdin_used+0x491>
    22c4:	e8 77 eb ff ff       	callq  e40 <puts@plt>
    22c9:	b8 00 00 00 00       	mov    $0x0,%eax
    22ce:	e8 5d fa ff ff       	callq  1d30 <check_fail>
    22d3:	e8 88 eb ff ff       	callq  e60 <__stack_chk_fail@plt>

00000000000022d8 <stable_launch>:
    22d8:	53                   	push   %rbx
    22d9:	48 89 3d e8 30 20 00 	mov    %rdi,0x2030e8(%rip)        # 2053c8 <global_offset>
    22e0:	41 b9 00 00 00 00    	mov    $0x0,%r9d
    22e6:	41 b8 00 00 00 00    	mov    $0x0,%r8d
    22ec:	b9 32 01 00 00       	mov    $0x132,%ecx
    22f1:	ba 07 00 00 00       	mov    $0x7,%edx
    22f6:	be 00 00 10 00       	mov    $0x100000,%esi
    22fb:	bf 00 60 58 55       	mov    $0x55586000,%edi
    2300:	e8 6b eb ff ff       	callq  e70 <mmap@plt>
    2305:	48 89 c3             	mov    %rax,%rbx
    2308:	48 3d 00 60 58 55    	cmp    $0x55586000,%rax
    230e:	75 43                	jne    2353 <stable_launch+0x7b>
    2310:	48 8d 90 f8 ff 0f 00 	lea    0xffff8(%rax),%rdx
    2317:	48 89 15 ea 3c 20 00 	mov    %rdx,0x203cea(%rip)        # 206008 <stack_top>
    231e:	48 89 e0             	mov    %rsp,%rax
    2321:	48 89 d4             	mov    %rdx,%rsp
    2324:	48 89 c2             	mov    %rax,%rdx
    2327:	48 89 15 92 30 20 00 	mov    %rdx,0x203092(%rip)        # 2053c0 <global_save_stack>
    232e:	48 8b 3d 93 30 20 00 	mov    0x203093(%rip),%rdi        # 2053c8 <global_offset>
    2335:	e8 e9 fe ff ff       	callq  2223 <launch>
    233a:	48 8b 05 7f 30 20 00 	mov    0x20307f(%rip),%rax        # 2053c0 <global_save_stack>
    2341:	48 89 c4             	mov    %rax,%rsp
    2344:	be 00 00 10 00       	mov    $0x100000,%esi
    2349:	48 89 df             	mov    %rbx,%rdi
    234c:	e8 ff eb ff ff       	callq  f50 <munmap@plt>
    2351:	5b                   	pop    %rbx
    2352:	c3                   	retq   
    2353:	be 00 00 10 00       	mov    $0x100000,%esi
    2358:	48 89 c7             	mov    %rax,%rdi
    235b:	e8 f0 eb ff ff       	callq  f50 <munmap@plt>
    2360:	b9 00 60 58 55       	mov    $0x55586000,%ecx
    2365:	48 8d 15 74 14 00 00 	lea    0x1474(%rip),%rdx        # 37e0 <_IO_stdin_used+0x650>
    236c:	be 01 00 00 00       	mov    $0x1,%esi
    2371:	48 8b 3d 28 30 20 00 	mov    0x203028(%rip),%rdi        # 2053a0 <stderr@@GLIBC_2.2.5>
    2378:	b8 00 00 00 00       	mov    $0x0,%eax
    237d:	e8 4e ec ff ff       	callq  fd0 <__fprintf_chk@plt>
    2382:	bf 01 00 00 00       	mov    $0x1,%edi
    2387:	e8 24 ec ff ff       	callq  fb0 <exit@plt>

000000000000238c <rio_readinitb>:
    238c:	89 37                	mov    %esi,(%rdi)
    238e:	c7 47 04 00 00 00 00 	movl   $0x0,0x4(%rdi)
    2395:	48 8d 47 10          	lea    0x10(%rdi),%rax
    2399:	48 89 47 08          	mov    %rax,0x8(%rdi)
    239d:	c3                   	retq   

000000000000239e <sigalrm_handler>:
    239e:	48 83 ec 08          	sub    $0x8,%rsp
    23a2:	b9 00 00 00 00       	mov    $0x0,%ecx
    23a7:	48 8d 15 72 14 00 00 	lea    0x1472(%rip),%rdx        # 3820 <trans_char+0x10>
    23ae:	be 01 00 00 00       	mov    $0x1,%esi
    23b3:	48 8b 3d e6 2f 20 00 	mov    0x202fe6(%rip),%rdi        # 2053a0 <stderr@@GLIBC_2.2.5>
    23ba:	b8 00 00 00 00       	mov    $0x0,%eax
    23bf:	e8 0c ec ff ff       	callq  fd0 <__fprintf_chk@plt>
    23c4:	bf 01 00 00 00       	mov    $0x1,%edi
    23c9:	e8 e2 eb ff ff       	callq  fb0 <exit@plt>

00000000000023ce <rio_writen>:
    23ce:	41 55                	push   %r13
    23d0:	41 54                	push   %r12
    23d2:	55                   	push   %rbp
    23d3:	53                   	push   %rbx
    23d4:	48 83 ec 08          	sub    $0x8,%rsp
    23d8:	41 89 fc             	mov    %edi,%r12d
    23db:	48 89 f5             	mov    %rsi,%rbp
    23de:	49 89 d5             	mov    %rdx,%r13
    23e1:	48 89 d3             	mov    %rdx,%rbx
    23e4:	eb 06                	jmp    23ec <rio_writen+0x1e>
    23e6:	48 29 c3             	sub    %rax,%rbx
    23e9:	48 01 c5             	add    %rax,%rbp
    23ec:	48 85 db             	test   %rbx,%rbx
    23ef:	74 24                	je     2415 <rio_writen+0x47>
    23f1:	48 89 da             	mov    %rbx,%rdx
    23f4:	48 89 ee             	mov    %rbp,%rsi
    23f7:	44 89 e7             	mov    %r12d,%edi
    23fa:	e8 51 ea ff ff       	callq  e50 <write@plt>
    23ff:	48 85 c0             	test   %rax,%rax
    2402:	7f e2                	jg     23e6 <rio_writen+0x18>
    2404:	e8 f7 e9 ff ff       	callq  e00 <__errno_location@plt>
    2409:	83 38 04             	cmpl   $0x4,(%rax)
    240c:	75 15                	jne    2423 <rio_writen+0x55>
    240e:	b8 00 00 00 00       	mov    $0x0,%eax
    2413:	eb d1                	jmp    23e6 <rio_writen+0x18>
    2415:	4c 89 e8             	mov    %r13,%rax
    2418:	48 83 c4 08          	add    $0x8,%rsp
    241c:	5b                   	pop    %rbx
    241d:	5d                   	pop    %rbp
    241e:	41 5c                	pop    %r12
    2420:	41 5d                	pop    %r13
    2422:	c3                   	retq   
    2423:	48 c7 c0 ff ff ff ff 	mov    $0xffffffffffffffff,%rax
    242a:	eb ec                	jmp    2418 <rio_writen+0x4a>

000000000000242c <rio_read>:
    242c:	41 55                	push   %r13
    242e:	41 54                	push   %r12
    2430:	55                   	push   %rbp
    2431:	53                   	push   %rbx
    2432:	48 83 ec 08          	sub    $0x8,%rsp
    2436:	48 89 fb             	mov    %rdi,%rbx
    2439:	49 89 f5             	mov    %rsi,%r13
    243c:	49 89 d4             	mov    %rdx,%r12
    243f:	eb 0a                	jmp    244b <rio_read+0x1f>
    2441:	e8 ba e9 ff ff       	callq  e00 <__errno_location@plt>
    2446:	83 38 04             	cmpl   $0x4,(%rax)
    2449:	75 5c                	jne    24a7 <rio_read+0x7b>
    244b:	8b 6b 04             	mov    0x4(%rbx),%ebp
    244e:	85 ed                	test   %ebp,%ebp
    2450:	7f 24                	jg     2476 <rio_read+0x4a>
    2452:	48 8d 6b 10          	lea    0x10(%rbx),%rbp
    2456:	8b 3b                	mov    (%rbx),%edi
    2458:	ba 00 20 00 00       	mov    $0x2000,%edx
    245d:	48 89 ee             	mov    %rbp,%rsi
    2460:	e8 4b ea ff ff       	callq  eb0 <read@plt>
    2465:	89 43 04             	mov    %eax,0x4(%rbx)
    2468:	85 c0                	test   %eax,%eax
    246a:	78 d5                	js     2441 <rio_read+0x15>
    246c:	85 c0                	test   %eax,%eax
    246e:	74 40                	je     24b0 <rio_read+0x84>
    2470:	48 89 6b 08          	mov    %rbp,0x8(%rbx)
    2474:	eb d5                	jmp    244b <rio_read+0x1f>
    2476:	89 e8                	mov    %ebp,%eax
    2478:	4c 39 e0             	cmp    %r12,%rax
    247b:	72 03                	jb     2480 <rio_read+0x54>
    247d:	44 89 e5             	mov    %r12d,%ebp
    2480:	4c 63 e5             	movslq %ebp,%r12
    2483:	48 8b 73 08          	mov    0x8(%rbx),%rsi
    2487:	4c 89 e2             	mov    %r12,%rdx
    248a:	4c 89 ef             	mov    %r13,%rdi
    248d:	e8 6e ea ff ff       	callq  f00 <memcpy@plt>
    2492:	4c 01 63 08          	add    %r12,0x8(%rbx)
    2496:	29 6b 04             	sub    %ebp,0x4(%rbx)
    2499:	4c 89 e0             	mov    %r12,%rax
    249c:	48 83 c4 08          	add    $0x8,%rsp
    24a0:	5b                   	pop    %rbx
    24a1:	5d                   	pop    %rbp
    24a2:	41 5c                	pop    %r12
    24a4:	41 5d                	pop    %r13
    24a6:	c3                   	retq   
    24a7:	48 c7 c0 ff ff ff ff 	mov    $0xffffffffffffffff,%rax
    24ae:	eb ec                	jmp    249c <rio_read+0x70>
    24b0:	b8 00 00 00 00       	mov    $0x0,%eax
    24b5:	eb e5                	jmp    249c <rio_read+0x70>

00000000000024b7 <rio_readlineb>:
    24b7:	41 55                	push   %r13
    24b9:	41 54                	push   %r12
    24bb:	55                   	push   %rbp
    24bc:	53                   	push   %rbx
    24bd:	48 83 ec 18          	sub    $0x18,%rsp
    24c1:	49 89 fd             	mov    %rdi,%r13
    24c4:	48 89 f5             	mov    %rsi,%rbp
    24c7:	49 89 d4             	mov    %rdx,%r12
    24ca:	64 48 8b 04 25 28 00 	mov    %fs:0x28,%rax
    24d1:	00 00 
    24d3:	48 89 44 24 08       	mov    %rax,0x8(%rsp)
    24d8:	31 c0                	xor    %eax,%eax
    24da:	bb 01 00 00 00       	mov    $0x1,%ebx
    24df:	4c 39 e3             	cmp    %r12,%rbx
    24e2:	73 47                	jae    252b <rio_readlineb+0x74>
    24e4:	48 8d 74 24 07       	lea    0x7(%rsp),%rsi
    24e9:	ba 01 00 00 00       	mov    $0x1,%edx
    24ee:	4c 89 ef             	mov    %r13,%rdi
    24f1:	e8 36 ff ff ff       	callq  242c <rio_read>
    24f6:	83 f8 01             	cmp    $0x1,%eax
    24f9:	75 1c                	jne    2517 <rio_readlineb+0x60>
    24fb:	48 8d 45 01          	lea    0x1(%rbp),%rax
    24ff:	0f b6 54 24 07       	movzbl 0x7(%rsp),%edx
    2504:	88 55 00             	mov    %dl,0x0(%rbp)
    2507:	80 7c 24 07 0a       	cmpb   $0xa,0x7(%rsp)
    250c:	74 1a                	je     2528 <rio_readlineb+0x71>
    250e:	48 83 c3 01          	add    $0x1,%rbx
    2512:	48 89 c5             	mov    %rax,%rbp
    2515:	eb c8                	jmp    24df <rio_readlineb+0x28>
    2517:	85 c0                	test   %eax,%eax
    2519:	75 32                	jne    254d <rio_readlineb+0x96>
    251b:	48 83 fb 01          	cmp    $0x1,%rbx
    251f:	75 0a                	jne    252b <rio_readlineb+0x74>
    2521:	b8 00 00 00 00       	mov    $0x0,%eax
    2526:	eb 0a                	jmp    2532 <rio_readlineb+0x7b>
    2528:	48 89 c5             	mov    %rax,%rbp
    252b:	c6 45 00 00          	movb   $0x0,0x0(%rbp)
    252f:	48 89 d8             	mov    %rbx,%rax
    2532:	48 8b 4c 24 08       	mov    0x8(%rsp),%rcx
    2537:	64 48 33 0c 25 28 00 	xor    %fs:0x28,%rcx
    253e:	00 00 
    2540:	75 14                	jne    2556 <rio_readlineb+0x9f>
    2542:	48 83 c4 18          	add    $0x18,%rsp
    2546:	5b                   	pop    %rbx
    2547:	5d                   	pop    %rbp
    2548:	41 5c                	pop    %r12
    254a:	41 5d                	pop    %r13
    254c:	c3                   	retq   
    254d:	48 c7 c0 ff ff ff ff 	mov    $0xffffffffffffffff,%rax
    2554:	eb dc                	jmp    2532 <rio_readlineb+0x7b>
    2556:	e8 05 e9 ff ff       	callq  e60 <__stack_chk_fail@plt>

000000000000255b <urlencode>:
    255b:	41 54                	push   %r12
    255d:	55                   	push   %rbp
    255e:	53                   	push   %rbx
    255f:	48 83 ec 10          	sub    $0x10,%rsp
    2563:	48 89 fb             	mov    %rdi,%rbx
    2566:	48 89 f5             	mov    %rsi,%rbp
    2569:	64 48 8b 04 25 28 00 	mov    %fs:0x28,%rax
    2570:	00 00 
    2572:	48 89 44 24 08       	mov    %rax,0x8(%rsp)
    2577:	31 c0                	xor    %eax,%eax
    2579:	48 c7 c1 ff ff ff ff 	mov    $0xffffffffffffffff,%rcx
    2580:	f2 ae                	repnz scas %es:(%rdi),%al
    2582:	48 89 ce             	mov    %rcx,%rsi
    2585:	48 f7 d6             	not    %rsi
    2588:	8d 46 ff             	lea    -0x1(%rsi),%eax
    258b:	eb 0f                	jmp    259c <urlencode+0x41>
    258d:	44 88 45 00          	mov    %r8b,0x0(%rbp)
    2591:	48 8d 6d 01          	lea    0x1(%rbp),%rbp
    2595:	48 83 c3 01          	add    $0x1,%rbx
    2599:	44 89 e0             	mov    %r12d,%eax
    259c:	44 8d 60 ff          	lea    -0x1(%rax),%r12d
    25a0:	85 c0                	test   %eax,%eax
    25a2:	0f 84 a8 00 00 00    	je     2650 <urlencode+0xf5>
    25a8:	44 0f b6 03          	movzbl (%rbx),%r8d
    25ac:	41 80 f8 2a          	cmp    $0x2a,%r8b
    25b0:	0f 94 c2             	sete   %dl
    25b3:	41 80 f8 2d          	cmp    $0x2d,%r8b
    25b7:	0f 94 c0             	sete   %al
    25ba:	08 c2                	or     %al,%dl
    25bc:	75 cf                	jne    258d <urlencode+0x32>
    25be:	41 80 f8 2e          	cmp    $0x2e,%r8b
    25c2:	74 c9                	je     258d <urlencode+0x32>
    25c4:	41 80 f8 5f          	cmp    $0x5f,%r8b
    25c8:	74 c3                	je     258d <urlencode+0x32>
    25ca:	41 8d 40 d0          	lea    -0x30(%r8),%eax
    25ce:	3c 09                	cmp    $0x9,%al
    25d0:	76 bb                	jbe    258d <urlencode+0x32>
    25d2:	41 8d 40 bf          	lea    -0x41(%r8),%eax
    25d6:	3c 19                	cmp    $0x19,%al
    25d8:	76 b3                	jbe    258d <urlencode+0x32>
    25da:	41 8d 40 9f          	lea    -0x61(%r8),%eax
    25de:	3c 19                	cmp    $0x19,%al
    25e0:	76 ab                	jbe    258d <urlencode+0x32>
    25e2:	41 80 f8 20          	cmp    $0x20,%r8b
    25e6:	74 56                	je     263e <urlencode+0xe3>
    25e8:	41 8d 40 e0          	lea    -0x20(%r8),%eax
    25ec:	3c 5f                	cmp    $0x5f,%al
    25ee:	0f 96 c2             	setbe  %dl
    25f1:	41 80 f8 09          	cmp    $0x9,%r8b
    25f5:	0f 94 c0             	sete   %al
    25f8:	08 c2                	or     %al,%dl
    25fa:	74 4f                	je     264b <urlencode+0xf0>
    25fc:	48 89 e7             	mov    %rsp,%rdi
    25ff:	45 0f b6 c0          	movzbl %r8b,%r8d
    2603:	48 8d 0d ae 12 00 00 	lea    0x12ae(%rip),%rcx        # 38b8 <trans_char+0xa8>
    260a:	ba 08 00 00 00       	mov    $0x8,%edx
    260f:	be 01 00 00 00       	mov    $0x1,%esi
    2614:	b8 00 00 00 00       	mov    $0x0,%eax
    2619:	e8 c2 e9 ff ff       	callq  fe0 <__sprintf_chk@plt>
    261e:	0f b6 04 24          	movzbl (%rsp),%eax
    2622:	88 45 00             	mov    %al,0x0(%rbp)
    2625:	0f b6 44 24 01       	movzbl 0x1(%rsp),%eax
    262a:	88 45 01             	mov    %al,0x1(%rbp)
    262d:	0f b6 44 24 02       	movzbl 0x2(%rsp),%eax
    2632:	88 45 02             	mov    %al,0x2(%rbp)
    2635:	48 8d 6d 03          	lea    0x3(%rbp),%rbp
    2639:	e9 57 ff ff ff       	jmpq   2595 <urlencode+0x3a>
    263e:	c6 45 00 2b          	movb   $0x2b,0x0(%rbp)
    2642:	48 8d 6d 01          	lea    0x1(%rbp),%rbp
    2646:	e9 4a ff ff ff       	jmpq   2595 <urlencode+0x3a>
    264b:	b8 ff ff ff ff       	mov    $0xffffffff,%eax
    2650:	48 8b 74 24 08       	mov    0x8(%rsp),%rsi
    2655:	64 48 33 34 25 28 00 	xor    %fs:0x28,%rsi
    265c:	00 00 
    265e:	75 09                	jne    2669 <urlencode+0x10e>
    2660:	48 83 c4 10          	add    $0x10,%rsp
    2664:	5b                   	pop    %rbx
    2665:	5d                   	pop    %rbp
    2666:	41 5c                	pop    %r12
    2668:	c3                   	retq   
    2669:	e8 f2 e7 ff ff       	callq  e60 <__stack_chk_fail@plt>

000000000000266e <submitr>:
    266e:	41 57                	push   %r15
    2670:	41 56                	push   %r14
    2672:	41 55                	push   %r13
    2674:	41 54                	push   %r12
    2676:	55                   	push   %rbp
    2677:	53                   	push   %rbx
    2678:	48 81 ec 68 a0 00 00 	sub    $0xa068,%rsp
    267f:	49 89 fd             	mov    %rdi,%r13
    2682:	89 74 24 14          	mov    %esi,0x14(%rsp)
    2686:	49 89 d7             	mov    %rdx,%r15
    2689:	48 89 4c 24 08       	mov    %rcx,0x8(%rsp)
    268e:	4c 89 44 24 18       	mov    %r8,0x18(%rsp)
    2693:	4d 89 ce             	mov    %r9,%r14
    2696:	48 8b ac 24 a0 a0 00 	mov    0xa0a0(%rsp),%rbp
    269d:	00 
    269e:	64 48 8b 04 25 28 00 	mov    %fs:0x28,%rax
    26a5:	00 00 
    26a7:	48 89 84 24 58 a0 00 	mov    %rax,0xa058(%rsp)
    26ae:	00 
    26af:	31 c0                	xor    %eax,%eax
    26b1:	c7 44 24 2c 00 00 00 	movl   $0x0,0x2c(%rsp)
    26b8:	00 
    26b9:	ba 00 00 00 00       	mov    $0x0,%edx
    26be:	be 01 00 00 00       	mov    $0x1,%esi
    26c3:	bf 02 00 00 00       	mov    $0x2,%edi
    26c8:	e8 23 e9 ff ff       	callq  ff0 <socket@plt>
    26cd:	85 c0                	test   %eax,%eax
    26cf:	0f 88 a9 02 00 00    	js     297e <submitr+0x310>
    26d5:	89 c3                	mov    %eax,%ebx
    26d7:	4c 89 ef             	mov    %r13,%rdi
    26da:	e8 f1 e7 ff ff       	callq  ed0 <gethostbyname@plt>
    26df:	48 85 c0             	test   %rax,%rax
    26e2:	0f 84 e2 02 00 00    	je     29ca <submitr+0x35c>
    26e8:	4c 8d 64 24 30       	lea    0x30(%rsp),%r12
    26ed:	48 c7 44 24 32 00 00 	movq   $0x0,0x32(%rsp)
    26f4:	00 00 
    26f6:	c7 44 24 3a 00 00 00 	movl   $0x0,0x3a(%rsp)
    26fd:	00 
    26fe:	66 c7 44 24 3e 00 00 	movw   $0x0,0x3e(%rsp)
    2705:	66 c7 44 24 30 02 00 	movw   $0x2,0x30(%rsp)
    270c:	48 63 50 14          	movslq 0x14(%rax),%rdx
    2710:	48 8b 40 18          	mov    0x18(%rax),%rax
    2714:	48 8b 30             	mov    (%rax),%rsi
    2717:	48 8d 7c 24 34       	lea    0x34(%rsp),%rdi
    271c:	b9 0c 00 00 00       	mov    $0xc,%ecx
    2721:	e8 ba e7 ff ff       	callq  ee0 <__memmove_chk@plt>
    2726:	0f b7 44 24 14       	movzwl 0x14(%rsp),%eax
    272b:	66 c1 c8 08          	ror    $0x8,%ax
    272f:	66 89 44 24 32       	mov    %ax,0x32(%rsp)
    2734:	ba 10 00 00 00       	mov    $0x10,%edx
    2739:	4c 89 e6             	mov    %r12,%rsi
    273c:	89 df                	mov    %ebx,%edi
    273e:	e8 7d e8 ff ff       	callq  fc0 <connect@plt>
    2743:	85 c0                	test   %eax,%eax
    2745:	0f 88 e7 02 00 00    	js     2a32 <submitr+0x3c4>
    274b:	48 c7 c6 ff ff ff ff 	mov    $0xffffffffffffffff,%rsi
    2752:	b8 00 00 00 00       	mov    $0x0,%eax
    2757:	48 89 f1             	mov    %rsi,%rcx
    275a:	4c 89 f7             	mov    %r14,%rdi
    275d:	f2 ae                	repnz scas %es:(%rdi),%al
    275f:	48 89 ca             	mov    %rcx,%rdx
    2762:	48 f7 d2             	not    %rdx
    2765:	48 89 f1             	mov    %rsi,%rcx
    2768:	4c 89 ff             	mov    %r15,%rdi
    276b:	f2 ae                	repnz scas %es:(%rdi),%al
    276d:	48 f7 d1             	not    %rcx
    2770:	49 89 c8             	mov    %rcx,%r8
    2773:	48 89 f1             	mov    %rsi,%rcx
    2776:	48 8b 7c 24 08       	mov    0x8(%rsp),%rdi
    277b:	f2 ae                	repnz scas %es:(%rdi),%al
    277d:	48 f7 d1             	not    %rcx
    2780:	4d 8d 44 08 fe       	lea    -0x2(%r8,%rcx,1),%r8
    2785:	48 89 f1             	mov    %rsi,%rcx
    2788:	48 8b 7c 24 18       	mov    0x18(%rsp),%rdi
    278d:	f2 ae                	repnz scas %es:(%rdi),%al
    278f:	48 89 c8             	mov    %rcx,%rax
    2792:	48 f7 d0             	not    %rax
    2795:	49 8d 4c 00 ff       	lea    -0x1(%r8,%rax,1),%rcx
    279a:	48 8d 44 52 fd       	lea    -0x3(%rdx,%rdx,2),%rax
    279f:	48 8d 84 01 80 00 00 	lea    0x80(%rcx,%rax,1),%rax
    27a6:	00 
    27a7:	48 3d 00 20 00 00    	cmp    $0x2000,%rax
    27ad:	0f 87 d9 02 00 00    	ja     2a8c <submitr+0x41e>
    27b3:	48 8d b4 24 50 40 00 	lea    0x4050(%rsp),%rsi
    27ba:	00 
    27bb:	b9 00 04 00 00       	mov    $0x400,%ecx
    27c0:	b8 00 00 00 00       	mov    $0x0,%eax
    27c5:	48 89 f7             	mov    %rsi,%rdi
    27c8:	f3 48 ab             	rep stos %rax,%es:(%rdi)
    27cb:	4c 89 f7             	mov    %r14,%rdi
    27ce:	e8 88 fd ff ff       	callq  255b <urlencode>
    27d3:	85 c0                	test   %eax,%eax
    27d5:	0f 88 24 03 00 00    	js     2aff <submitr+0x491>
    27db:	4c 8d a4 24 50 20 00 	lea    0x2050(%rsp),%r12
    27e2:	00 
    27e3:	41 55                	push   %r13
    27e5:	48 8d 84 24 58 40 00 	lea    0x4058(%rsp),%rax
    27ec:	00 
    27ed:	50                   	push   %rax
    27ee:	4d 89 f9             	mov    %r15,%r9
    27f1:	4c 8b 44 24 18       	mov    0x18(%rsp),%r8
    27f6:	48 8d 0d 4b 10 00 00 	lea    0x104b(%rip),%rcx        # 3848 <trans_char+0x38>
    27fd:	ba 00 20 00 00       	mov    $0x2000,%edx
    2802:	be 01 00 00 00       	mov    $0x1,%esi
    2807:	4c 89 e7             	mov    %r12,%rdi
    280a:	b8 00 00 00 00       	mov    $0x0,%eax
    280f:	e8 cc e7 ff ff       	callq  fe0 <__sprintf_chk@plt>
    2814:	48 c7 c1 ff ff ff ff 	mov    $0xffffffffffffffff,%rcx
    281b:	b8 00 00 00 00       	mov    $0x0,%eax
    2820:	4c 89 e7             	mov    %r12,%rdi
    2823:	f2 ae                	repnz scas %es:(%rdi),%al
    2825:	48 89 ca             	mov    %rcx,%rdx
    2828:	48 f7 d2             	not    %rdx
    282b:	48 8d 52 ff          	lea    -0x1(%rdx),%rdx
    282f:	4c 89 e6             	mov    %r12,%rsi
    2832:	89 df                	mov    %ebx,%edi
    2834:	e8 95 fb ff ff       	callq  23ce <rio_writen>
    2839:	48 83 c4 10          	add    $0x10,%rsp
    283d:	48 85 c0             	test   %rax,%rax
    2840:	0f 88 44 03 00 00    	js     2b8a <submitr+0x51c>
    2846:	4c 8d 64 24 40       	lea    0x40(%rsp),%r12
    284b:	89 de                	mov    %ebx,%esi
    284d:	4c 89 e7             	mov    %r12,%rdi
    2850:	e8 37 fb ff ff       	callq  238c <rio_readinitb>
    2855:	48 8d b4 24 50 20 00 	lea    0x2050(%rsp),%rsi
    285c:	00 
    285d:	ba 00 20 00 00       	mov    $0x2000,%edx
    2862:	4c 89 e7             	mov    %r12,%rdi
    2865:	e8 4d fc ff ff       	callq  24b7 <rio_readlineb>
    286a:	48 85 c0             	test   %rax,%rax
    286d:	0f 8e 86 03 00 00    	jle    2bf9 <submitr+0x58b>
    2873:	48 8d 4c 24 2c       	lea    0x2c(%rsp),%rcx
    2878:	48 8d 94 24 50 60 00 	lea    0x6050(%rsp),%rdx
    287f:	00 
    2880:	48 8d bc 24 50 20 00 	lea    0x2050(%rsp),%rdi
    2887:	00 
    2888:	4c 8d 84 24 50 80 00 	lea    0x8050(%rsp),%r8
    288f:	00 
    2890:	48 8d 35 28 10 00 00 	lea    0x1028(%rip),%rsi        # 38bf <trans_char+0xaf>
    2897:	b8 00 00 00 00       	mov    $0x0,%eax
    289c:	e8 9f e6 ff ff       	callq  f40 <__isoc99_sscanf@plt>
    28a1:	48 8d b4 24 50 20 00 	lea    0x2050(%rsp),%rsi
    28a8:	00 
    28a9:	b9 03 00 00 00       	mov    $0x3,%ecx
    28ae:	48 8d 3d 21 10 00 00 	lea    0x1021(%rip),%rdi        # 38d6 <trans_char+0xc6>
    28b5:	f3 a6                	repz cmpsb %es:(%rdi),%ds:(%rsi)
    28b7:	0f 97 c0             	seta   %al
    28ba:	1c 00                	sbb    $0x0,%al
    28bc:	84 c0                	test   %al,%al
    28be:	0f 84 b3 03 00 00    	je     2c77 <submitr+0x609>
    28c4:	48 8d b4 24 50 20 00 	lea    0x2050(%rsp),%rsi
    28cb:	00 
    28cc:	48 8d 7c 24 40       	lea    0x40(%rsp),%rdi
    28d1:	ba 00 20 00 00       	mov    $0x2000,%edx
    28d6:	e8 dc fb ff ff       	callq  24b7 <rio_readlineb>
    28db:	48 85 c0             	test   %rax,%rax
    28de:	7f c1                	jg     28a1 <submitr+0x233>
    28e0:	48 b8 45 72 72 6f 72 	movabs $0x43203a726f727245,%rax
    28e7:	3a 20 43 
    28ea:	48 ba 6c 69 65 6e 74 	movabs $0x6e7520746e65696c,%rdx
    28f1:	20 75 6e 
    28f4:	48 89 45 00          	mov    %rax,0x0(%rbp)
    28f8:	48 89 55 08          	mov    %rdx,0x8(%rbp)
    28fc:	48 b8 61 62 6c 65 20 	movabs $0x206f7420656c6261,%rax
    2903:	74 6f 20 
    2906:	48 ba 72 65 61 64 20 	movabs $0x6165682064616572,%rdx
    290d:	68 65 61 
    2910:	48 89 45 10          	mov    %rax,0x10(%rbp)
    2914:	48 89 55 18          	mov    %rdx,0x18(%rbp)
    2918:	48 b8 64 65 72 73 20 	movabs $0x6f72662073726564,%rax
    291f:	66 72 6f 
    2922:	48 ba 6d 20 74 68 65 	movabs $0x657220656874206d,%rdx
    2929:	20 72 65 
    292c:	48 89 45 20          	mov    %rax,0x20(%rbp)
    2930:	48 89 55 28          	mov    %rdx,0x28(%rbp)
    2934:	48 b8 73 75 6c 74 20 	movabs $0x72657320746c7573,%rax
    293b:	73 65 72 
    293e:	48 89 45 30          	mov    %rax,0x30(%rbp)
    2942:	c7 45 38 76 65 72 00 	movl   $0x726576,0x38(%rbp)
    2949:	89 df                	mov    %ebx,%edi
    294b:	e8 50 e5 ff ff       	callq  ea0 <close@plt>
    2950:	b8 ff ff ff ff       	mov    $0xffffffff,%eax
    2955:	48 8b 9c 24 58 a0 00 	mov    0xa058(%rsp),%rbx
    295c:	00 
    295d:	64 48 33 1c 25 28 00 	xor    %fs:0x28,%rbx
    2964:	00 00 
    2966:	0f 85 7e 04 00 00    	jne    2dea <submitr+0x77c>
    296c:	48 81 c4 68 a0 00 00 	add    $0xa068,%rsp
    2973:	5b                   	pop    %rbx
    2974:	5d                   	pop    %rbp
    2975:	41 5c                	pop    %r12
    2977:	41 5d                	pop    %r13
    2979:	41 5e                	pop    %r14
    297b:	41 5f                	pop    %r15
    297d:	c3                   	retq   
    297e:	48 b8 45 72 72 6f 72 	movabs $0x43203a726f727245,%rax
    2985:	3a 20 43 
    2988:	48 ba 6c 69 65 6e 74 	movabs $0x6e7520746e65696c,%rdx
    298f:	20 75 6e 
    2992:	48 89 45 00          	mov    %rax,0x0(%rbp)
    2996:	48 89 55 08          	mov    %rdx,0x8(%rbp)
    299a:	48 b8 61 62 6c 65 20 	movabs $0x206f7420656c6261,%rax
    29a1:	74 6f 20 
    29a4:	48 ba 63 72 65 61 74 	movabs $0x7320657461657263,%rdx
    29ab:	65 20 73 
    29ae:	48 89 45 10          	mov    %rax,0x10(%rbp)
    29b2:	48 89 55 18          	mov    %rdx,0x18(%rbp)
    29b6:	c7 45 20 6f 63 6b 65 	movl   $0x656b636f,0x20(%rbp)
    29bd:	66 c7 45 24 74 00    	movw   $0x74,0x24(%rbp)
    29c3:	b8 ff ff ff ff       	mov    $0xffffffff,%eax
    29c8:	eb 8b                	jmp    2955 <submitr+0x2e7>
    29ca:	48 b8 45 72 72 6f 72 	movabs $0x44203a726f727245,%rax
    29d1:	3a 20 44 
    29d4:	48 ba 4e 53 20 69 73 	movabs $0x6e7520736920534e,%rdx
    29db:	20 75 6e 
    29de:	48 89 45 00          	mov    %rax,0x0(%rbp)
    29e2:	48 89 55 08          	mov    %rdx,0x8(%rbp)
    29e6:	48 b8 61 62 6c 65 20 	movabs $0x206f7420656c6261,%rax
    29ed:	74 6f 20 
    29f0:	48 ba 72 65 73 6f 6c 	movabs $0x2065766c6f736572,%rdx
    29f7:	76 65 20 
    29fa:	48 89 45 10          	mov    %rax,0x10(%rbp)
    29fe:	48 89 55 18          	mov    %rdx,0x18(%rbp)
    2a02:	48 b8 73 65 72 76 65 	movabs $0x6120726576726573,%rax
    2a09:	72 20 61 
    2a0c:	48 89 45 20          	mov    %rax,0x20(%rbp)
    2a10:	c7 45 28 64 64 72 65 	movl   $0x65726464,0x28(%rbp)
    2a17:	66 c7 45 2c 73 73    	movw   $0x7373,0x2c(%rbp)
    2a1d:	c6 45 2e 00          	movb   $0x0,0x2e(%rbp)
    2a21:	89 df                	mov    %ebx,%edi
    2a23:	e8 78 e4 ff ff       	callq  ea0 <close@plt>
    2a28:	b8 ff ff ff ff       	mov    $0xffffffff,%eax
    2a2d:	e9 23 ff ff ff       	jmpq   2955 <submitr+0x2e7>
    2a32:	48 b8 45 72 72 6f 72 	movabs $0x55203a726f727245,%rax
    2a39:	3a 20 55 
    2a3c:	48 ba 6e 61 62 6c 65 	movabs $0x6f7420656c62616e,%rdx
    2a43:	20 74 6f 
    2a46:	48 89 45 00          	mov    %rax,0x0(%rbp)
    2a4a:	48 89 55 08          	mov    %rdx,0x8(%rbp)
    2a4e:	48 b8 20 63 6f 6e 6e 	movabs $0x7463656e6e6f6320,%rax
    2a55:	65 63 74 
    2a58:	48 ba 20 74 6f 20 74 	movabs $0x20656874206f7420,%rdx
    2a5f:	68 65 20 
    2a62:	48 89 45 10          	mov    %rax,0x10(%rbp)
    2a66:	48 89 55 18          	mov    %rdx,0x18(%rbp)
    2a6a:	c7 45 20 73 65 72 76 	movl   $0x76726573,0x20(%rbp)
    2a71:	66 c7 45 24 65 72    	movw   $0x7265,0x24(%rbp)
    2a77:	c6 45 26 00          	movb   $0x0,0x26(%rbp)
    2a7b:	89 df                	mov    %ebx,%edi
    2a7d:	e8 1e e4 ff ff       	callq  ea0 <close@plt>
    2a82:	b8 ff ff ff ff       	mov    $0xffffffff,%eax
    2a87:	e9 c9 fe ff ff       	jmpq   2955 <submitr+0x2e7>
    2a8c:	48 b8 45 72 72 6f 72 	movabs $0x52203a726f727245,%rax
    2a93:	3a 20 52 
    2a96:	48 ba 65 73 75 6c 74 	movabs $0x747320746c757365,%rdx
    2a9d:	20 73 74 
    2aa0:	48 89 45 00          	mov    %rax,0x0(%rbp)
    2aa4:	48 89 55 08          	mov    %rdx,0x8(%rbp)
    2aa8:	48 b8 72 69 6e 67 20 	movabs $0x6f6f7420676e6972,%rax
    2aaf:	74 6f 6f 
    2ab2:	48 ba 20 6c 61 72 67 	movabs $0x202e656772616c20,%rdx
    2ab9:	65 2e 20 
    2abc:	48 89 45 10          	mov    %rax,0x10(%rbp)
    2ac0:	48 89 55 18          	mov    %rdx,0x18(%rbp)
    2ac4:	48 b8 49 6e 63 72 65 	movabs $0x6573616572636e49,%rax
    2acb:	61 73 65 
    2ace:	48 ba 20 53 55 42 4d 	movabs $0x5254494d42555320,%rdx
    2ad5:	49 54 52 
    2ad8:	48 89 45 20          	mov    %rax,0x20(%rbp)
    2adc:	48 89 55 28          	mov    %rdx,0x28(%rbp)
    2ae0:	48 b8 5f 4d 41 58 42 	movabs $0x46554258414d5f,%rax
    2ae7:	55 46 00 
    2aea:	48 89 45 30          	mov    %rax,0x30(%rbp)
    2aee:	89 df                	mov    %ebx,%edi
    2af0:	e8 ab e3 ff ff       	callq  ea0 <close@plt>
    2af5:	b8 ff ff ff ff       	mov    $0xffffffff,%eax
    2afa:	e9 56 fe ff ff       	jmpq   2955 <submitr+0x2e7>
    2aff:	48 b8 45 72 72 6f 72 	movabs $0x52203a726f727245,%rax
    2b06:	3a 20 52 
    2b09:	48 ba 65 73 75 6c 74 	movabs $0x747320746c757365,%rdx
    2b10:	20 73 74 
    2b13:	48 89 45 00          	mov    %rax,0x0(%rbp)
    2b17:	48 89 55 08          	mov    %rdx,0x8(%rbp)
    2b1b:	48 b8 72 69 6e 67 20 	movabs $0x6e6f6320676e6972,%rax
    2b22:	63 6f 6e 
    2b25:	48 ba 74 61 69 6e 73 	movabs $0x6e6120736e696174,%rdx
    2b2c:	20 61 6e 
    2b2f:	48 89 45 10          	mov    %rax,0x10(%rbp)
    2b33:	48 89 55 18          	mov    %rdx,0x18(%rbp)
    2b37:	48 b8 20 69 6c 6c 65 	movabs $0x6c6167656c6c6920,%rax
    2b3e:	67 61 6c 
    2b41:	48 ba 20 6f 72 20 75 	movabs $0x72706e7520726f20,%rdx
    2b48:	6e 70 72 
    2b4b:	48 89 45 20          	mov    %rax,0x20(%rbp)
    2b4f:	48 89 55 28          	mov    %rdx,0x28(%rbp)
    2b53:	48 b8 69 6e 74 61 62 	movabs $0x20656c6261746e69,%rax
    2b5a:	6c 65 20 
    2b5d:	48 ba 63 68 61 72 61 	movabs $0x6574636172616863,%rdx
    2b64:	63 74 65 
    2b67:	48 89 45 30          	mov    %rax,0x30(%rbp)
    2b6b:	48 89 55 38          	mov    %rdx,0x38(%rbp)
    2b6f:	66 c7 45 40 72 2e    	movw   $0x2e72,0x40(%rbp)
    2b75:	c6 45 42 00          	movb   $0x0,0x42(%rbp)
    2b79:	89 df                	mov    %ebx,%edi
    2b7b:	e8 20 e3 ff ff       	callq  ea0 <close@plt>
    2b80:	b8 ff ff ff ff       	mov    $0xffffffff,%eax
    2b85:	e9 cb fd ff ff       	jmpq   2955 <submitr+0x2e7>
    2b8a:	48 b8 45 72 72 6f 72 	movabs $0x43203a726f727245,%rax
    2b91:	3a 20 43 
    2b94:	48 ba 6c 69 65 6e 74 	movabs $0x6e7520746e65696c,%rdx
    2b9b:	20 75 6e 
    2b9e:	48 89 45 00          	mov    %rax,0x0(%rbp)
    2ba2:	48 89 55 08          	mov    %rdx,0x8(%rbp)
    2ba6:	48 b8 61 62 6c 65 20 	movabs $0x206f7420656c6261,%rax
    2bad:	74 6f 20 
    2bb0:	48 ba 77 72 69 74 65 	movabs $0x6f74206574697277,%rdx
    2bb7:	20 74 6f 
    2bba:	48 89 45 10          	mov    %rax,0x10(%rbp)
    2bbe:	48 89 55 18          	mov    %rdx,0x18(%rbp)
    2bc2:	48 b8 20 74 68 65 20 	movabs $0x7365722065687420,%rax
    2bc9:	72 65 73 
    2bcc:	48 ba 75 6c 74 20 73 	movabs $0x7672657320746c75,%rdx
    2bd3:	65 72 76 
    2bd6:	48 89 45 20          	mov    %rax,0x20(%rbp)
    2bda:	48 89 55 28          	mov    %rdx,0x28(%rbp)
    2bde:	66 c7 45 30 65 72    	movw   $0x7265,0x30(%rbp)
    2be4:	c6 45 32 00          	movb   $0x0,0x32(%rbp)
    2be8:	89 df                	mov    %ebx,%edi
    2bea:	e8 b1 e2 ff ff       	callq  ea0 <close@plt>
    2bef:	b8 ff ff ff ff       	mov    $0xffffffff,%eax
    2bf4:	e9 5c fd ff ff       	jmpq   2955 <submitr+0x2e7>
    2bf9:	48 b8 45 72 72 6f 72 	movabs $0x43203a726f727245,%rax
    2c00:	3a 20 43 
    2c03:	48 ba 6c 69 65 6e 74 	movabs $0x6e7520746e65696c,%rdx
    2c0a:	20 75 6e 
    2c0d:	48 89 45 00          	mov    %rax,0x0(%rbp)
    2c11:	48 89 55 08          	mov    %rdx,0x8(%rbp)
    2c15:	48 b8 61 62 6c 65 20 	movabs $0x206f7420656c6261,%rax
    2c1c:	74 6f 20 
    2c1f:	48 ba 72 65 61 64 20 	movabs $0x7269662064616572,%rdx
    2c26:	66 69 72 
    2c29:	48 89 45 10          	mov    %rax,0x10(%rbp)
    2c2d:	48 89 55 18          	mov    %rdx,0x18(%rbp)
    2c31:	48 b8 73 74 20 68 65 	movabs $0x6564616568207473,%rax
    2c38:	61 64 65 
    2c3b:	48 ba 72 20 66 72 6f 	movabs $0x72206d6f72662072,%rdx
    2c42:	6d 20 72 
    2c45:	48 89 45 20          	mov    %rax,0x20(%rbp)
    2c49:	48 89 55 28          	mov    %rdx,0x28(%rbp)
    2c4d:	48 b8 65 73 75 6c 74 	movabs $0x657320746c757365,%rax
    2c54:	20 73 65 
    2c57:	48 89 45 30          	mov    %rax,0x30(%rbp)
    2c5b:	c7 45 38 72 76 65 72 	movl   $0x72657672,0x38(%rbp)
    2c62:	c6 45 3c 00          	movb   $0x0,0x3c(%rbp)
    2c66:	89 df                	mov    %ebx,%edi
    2c68:	e8 33 e2 ff ff       	callq  ea0 <close@plt>
    2c6d:	b8 ff ff ff ff       	mov    $0xffffffff,%eax
    2c72:	e9 de fc ff ff       	jmpq   2955 <submitr+0x2e7>
    2c77:	48 8d b4 24 50 20 00 	lea    0x2050(%rsp),%rsi
    2c7e:	00 
    2c7f:	48 8d 7c 24 40       	lea    0x40(%rsp),%rdi
    2c84:	ba 00 20 00 00       	mov    $0x2000,%edx
    2c89:	e8 29 f8 ff ff       	callq  24b7 <rio_readlineb>
    2c8e:	48 85 c0             	test   %rax,%rax
    2c91:	0f 8e 96 00 00 00    	jle    2d2d <submitr+0x6bf>
    2c97:	44 8b 44 24 2c       	mov    0x2c(%rsp),%r8d
    2c9c:	41 81 f8 c8 00 00 00 	cmp    $0xc8,%r8d
    2ca3:	0f 85 08 01 00 00    	jne    2db1 <submitr+0x743>
    2ca9:	48 8d b4 24 50 80 00 	lea    0x8050(%rsp),%rsi
    2cb0:	00 
    2cb1:	48 89 ef             	mov    %rbp,%rdi
    2cb4:	e8 77 e1 ff ff       	callq  e30 <strcpy@plt>
    2cb9:	89 df                	mov    %ebx,%edi
    2cbb:	e8 e0 e1 ff ff       	callq  ea0 <close@plt>
    2cc0:	b9 04 00 00 00       	mov    $0x4,%ecx
    2cc5:	48 8d 3d 04 0c 00 00 	lea    0xc04(%rip),%rdi        # 38d0 <trans_char+0xc0>
    2ccc:	48 89 ee             	mov    %rbp,%rsi
    2ccf:	f3 a6                	repz cmpsb %es:(%rdi),%ds:(%rsi)
    2cd1:	0f 97 c0             	seta   %al
    2cd4:	1c 00                	sbb    $0x0,%al
    2cd6:	0f be c0             	movsbl %al,%eax
    2cd9:	85 c0                	test   %eax,%eax
    2cdb:	0f 84 74 fc ff ff    	je     2955 <submitr+0x2e7>
    2ce1:	b9 05 00 00 00       	mov    $0x5,%ecx
    2ce6:	48 8d 3d e7 0b 00 00 	lea    0xbe7(%rip),%rdi        # 38d4 <trans_char+0xc4>
    2ced:	48 89 ee             	mov    %rbp,%rsi
    2cf0:	f3 a6                	repz cmpsb %es:(%rdi),%ds:(%rsi)
    2cf2:	0f 97 c0             	seta   %al
    2cf5:	1c 00                	sbb    $0x0,%al
    2cf7:	0f be c0             	movsbl %al,%eax
    2cfa:	85 c0                	test   %eax,%eax
    2cfc:	0f 84 53 fc ff ff    	je     2955 <submitr+0x2e7>
    2d02:	b9 03 00 00 00       	mov    $0x3,%ecx
    2d07:	48 8d 3d cb 0b 00 00 	lea    0xbcb(%rip),%rdi        # 38d9 <trans_char+0xc9>
    2d0e:	48 89 ee             	mov    %rbp,%rsi
    2d11:	f3 a6                	repz cmpsb %es:(%rdi),%ds:(%rsi)
    2d13:	0f 97 c0             	seta   %al
    2d16:	1c 00                	sbb    $0x0,%al
    2d18:	0f be c0             	movsbl %al,%eax
    2d1b:	85 c0                	test   %eax,%eax
    2d1d:	0f 84 32 fc ff ff    	je     2955 <submitr+0x2e7>
    2d23:	b8 ff ff ff ff       	mov    $0xffffffff,%eax
    2d28:	e9 28 fc ff ff       	jmpq   2955 <submitr+0x2e7>
    2d2d:	48 b8 45 72 72 6f 72 	movabs $0x43203a726f727245,%rax
    2d34:	3a 20 43 
    2d37:	48 ba 6c 69 65 6e 74 	movabs $0x6e7520746e65696c,%rdx
    2d3e:	20 75 6e 
    2d41:	48 89 45 00          	mov    %rax,0x0(%rbp)
    2d45:	48 89 55 08          	mov    %rdx,0x8(%rbp)
    2d49:	48 b8 61 62 6c 65 20 	movabs $0x206f7420656c6261,%rax
    2d50:	74 6f 20 
    2d53:	48 ba 72 65 61 64 20 	movabs $0x6174732064616572,%rdx
    2d5a:	73 74 61 
    2d5d:	48 89 45 10          	mov    %rax,0x10(%rbp)
    2d61:	48 89 55 18          	mov    %rdx,0x18(%rbp)
    2d65:	48 b8 74 75 73 20 6d 	movabs $0x7373656d20737574,%rax
    2d6c:	65 73 73 
    2d6f:	48 ba 61 67 65 20 66 	movabs $0x6d6f726620656761,%rdx
    2d76:	72 6f 6d 
    2d79:	48 89 45 20          	mov    %rax,0x20(%rbp)
    2d7d:	48 89 55 28          	mov    %rdx,0x28(%rbp)
    2d81:	48 b8 20 72 65 73 75 	movabs $0x20746c7573657220,%rax
    2d88:	6c 74 20 
    2d8b:	48 89 45 30          	mov    %rax,0x30(%rbp)
    2d8f:	c7 45 38 73 65 72 76 	movl   $0x76726573,0x38(%rbp)
    2d96:	66 c7 45 3c 65 72    	movw   $0x7265,0x3c(%rbp)
    2d9c:	c6 45 3e 00          	movb   $0x0,0x3e(%rbp)
    2da0:	89 df                	mov    %ebx,%edi
    2da2:	e8 f9 e0 ff ff       	callq  ea0 <close@plt>
    2da7:	b8 ff ff ff ff       	mov    $0xffffffff,%eax
    2dac:	e9 a4 fb ff ff       	jmpq   2955 <submitr+0x2e7>
    2db1:	4c 8d 8c 24 50 80 00 	lea    0x8050(%rsp),%r9
    2db8:	00 
    2db9:	48 8d 0d c8 0a 00 00 	lea    0xac8(%rip),%rcx        # 3888 <trans_char+0x78>
    2dc0:	48 c7 c2 ff ff ff ff 	mov    $0xffffffffffffffff,%rdx
    2dc7:	be 01 00 00 00       	mov    $0x1,%esi
    2dcc:	48 89 ef             	mov    %rbp,%rdi
    2dcf:	b8 00 00 00 00       	mov    $0x0,%eax
    2dd4:	e8 07 e2 ff ff       	callq  fe0 <__sprintf_chk@plt>
    2dd9:	89 df                	mov    %ebx,%edi
    2ddb:	e8 c0 e0 ff ff       	callq  ea0 <close@plt>
    2de0:	b8 ff ff ff ff       	mov    $0xffffffff,%eax
    2de5:	e9 6b fb ff ff       	jmpq   2955 <submitr+0x2e7>
    2dea:	e8 71 e0 ff ff       	callq  e60 <__stack_chk_fail@plt>

0000000000002def <init_timeout>:
    2def:	85 ff                	test   %edi,%edi
    2df1:	74 28                	je     2e1b <init_timeout+0x2c>
    2df3:	53                   	push   %rbx
    2df4:	89 fb                	mov    %edi,%ebx
    2df6:	85 ff                	test   %edi,%edi
    2df8:	78 1a                	js     2e14 <init_timeout+0x25>
    2dfa:	48 8d 35 9d f5 ff ff 	lea    -0xa63(%rip),%rsi        # 239e <sigalrm_handler>
    2e01:	bf 0e 00 00 00       	mov    $0xe,%edi
    2e06:	e8 b5 e0 ff ff       	callq  ec0 <signal@plt>
    2e0b:	89 df                	mov    %ebx,%edi
    2e0d:	e8 7e e0 ff ff       	callq  e90 <alarm@plt>
    2e12:	5b                   	pop    %rbx
    2e13:	c3                   	retq   
    2e14:	bb 00 00 00 00       	mov    $0x0,%ebx
    2e19:	eb df                	jmp    2dfa <init_timeout+0xb>
    2e1b:	f3 c3                	repz retq 

0000000000002e1d <init_driver>:
    2e1d:	41 54                	push   %r12
    2e1f:	55                   	push   %rbp
    2e20:	53                   	push   %rbx
    2e21:	48 83 ec 20          	sub    $0x20,%rsp
    2e25:	49 89 fc             	mov    %rdi,%r12
    2e28:	64 48 8b 04 25 28 00 	mov    %fs:0x28,%rax
    2e2f:	00 00 
    2e31:	48 89 44 24 18       	mov    %rax,0x18(%rsp)
    2e36:	31 c0                	xor    %eax,%eax
    2e38:	be 01 00 00 00       	mov    $0x1,%esi
    2e3d:	bf 0d 00 00 00       	mov    $0xd,%edi
    2e42:	e8 79 e0 ff ff       	callq  ec0 <signal@plt>
    2e47:	be 01 00 00 00       	mov    $0x1,%esi
    2e4c:	bf 1d 00 00 00       	mov    $0x1d,%edi
    2e51:	e8 6a e0 ff ff       	callq  ec0 <signal@plt>
    2e56:	be 01 00 00 00       	mov    $0x1,%esi
    2e5b:	bf 1d 00 00 00       	mov    $0x1d,%edi
    2e60:	e8 5b e0 ff ff       	callq  ec0 <signal@plt>
    2e65:	ba 00 00 00 00       	mov    $0x0,%edx
    2e6a:	be 01 00 00 00       	mov    $0x1,%esi
    2e6f:	bf 02 00 00 00       	mov    $0x2,%edi
    2e74:	e8 77 e1 ff ff       	callq  ff0 <socket@plt>
    2e79:	85 c0                	test   %eax,%eax
    2e7b:	0f 88 a3 00 00 00    	js     2f24 <init_driver+0x107>
    2e81:	89 c3                	mov    %eax,%ebx
    2e83:	48 8d 3d 52 0a 00 00 	lea    0xa52(%rip),%rdi        # 38dc <trans_char+0xcc>
    2e8a:	e8 41 e0 ff ff       	callq  ed0 <gethostbyname@plt>
    2e8f:	48 85 c0             	test   %rax,%rax
    2e92:	0f 84 df 00 00 00    	je     2f77 <init_driver+0x15a>
    2e98:	48 89 e5             	mov    %rsp,%rbp
    2e9b:	48 c7 44 24 02 00 00 	movq   $0x0,0x2(%rsp)
    2ea2:	00 00 
    2ea4:	c7 45 0a 00 00 00 00 	movl   $0x0,0xa(%rbp)
    2eab:	66 c7 45 0e 00 00    	movw   $0x0,0xe(%rbp)
    2eb1:	66 c7 04 24 02 00    	movw   $0x2,(%rsp)
    2eb7:	48 63 50 14          	movslq 0x14(%rax),%rdx
    2ebb:	48 8b 40 18          	mov    0x18(%rax),%rax
    2ebf:	48 8b 30             	mov    (%rax),%rsi
    2ec2:	48 8d 7d 04          	lea    0x4(%rbp),%rdi
    2ec6:	b9 0c 00 00 00       	mov    $0xc,%ecx
    2ecb:	e8 10 e0 ff ff       	callq  ee0 <__memmove_chk@plt>
    2ed0:	66 c7 44 24 02 5b 87 	movw   $0x875b,0x2(%rsp)
    2ed7:	ba 10 00 00 00       	mov    $0x10,%edx
    2edc:	48 89 ee             	mov    %rbp,%rsi
    2edf:	89 df                	mov    %ebx,%edi
    2ee1:	e8 da e0 ff ff       	callq  fc0 <connect@plt>
    2ee6:	85 c0                	test   %eax,%eax
    2ee8:	0f 88 fb 00 00 00    	js     2fe9 <init_driver+0x1cc>
    2eee:	89 df                	mov    %ebx,%edi
    2ef0:	e8 ab df ff ff       	callq  ea0 <close@plt>
    2ef5:	66 41 c7 04 24 4f 4b 	movw   $0x4b4f,(%r12)
    2efc:	41 c6 44 24 02 00    	movb   $0x0,0x2(%r12)
    2f02:	b8 00 00 00 00       	mov    $0x0,%eax
    2f07:	48 8b 4c 24 18       	mov    0x18(%rsp),%rcx
    2f0c:	64 48 33 0c 25 28 00 	xor    %fs:0x28,%rcx
    2f13:	00 00 
    2f15:	0f 85 28 01 00 00    	jne    3043 <init_driver+0x226>
    2f1b:	48 83 c4 20          	add    $0x20,%rsp
    2f1f:	5b                   	pop    %rbx
    2f20:	5d                   	pop    %rbp
    2f21:	41 5c                	pop    %r12
    2f23:	c3                   	retq   
    2f24:	48 b8 45 72 72 6f 72 	movabs $0x43203a726f727245,%rax
    2f2b:	3a 20 43 
    2f2e:	48 ba 6c 69 65 6e 74 	movabs $0x6e7520746e65696c,%rdx
    2f35:	20 75 6e 
    2f38:	49 89 04 24          	mov    %rax,(%r12)
    2f3c:	49 89 54 24 08       	mov    %rdx,0x8(%r12)
    2f41:	48 b8 61 62 6c 65 20 	movabs $0x206f7420656c6261,%rax
    2f48:	74 6f 20 
    2f4b:	48 ba 63 72 65 61 74 	movabs $0x7320657461657263,%rdx
    2f52:	65 20 73 
    2f55:	49 89 44 24 10       	mov    %rax,0x10(%r12)
    2f5a:	49 89 54 24 18       	mov    %rdx,0x18(%r12)
    2f5f:	41 c7 44 24 20 6f 63 	movl   $0x656b636f,0x20(%r12)
    2f66:	6b 65 
    2f68:	66 41 c7 44 24 24 74 	movw   $0x74,0x24(%r12)
    2f6f:	00 
    2f70:	b8 ff ff ff ff       	mov    $0xffffffff,%eax
    2f75:	eb 90                	jmp    2f07 <init_driver+0xea>
    2f77:	48 b8 45 72 72 6f 72 	movabs $0x44203a726f727245,%rax
    2f7e:	3a 20 44 
    2f81:	48 ba 4e 53 20 69 73 	movabs $0x6e7520736920534e,%rdx
    2f88:	20 75 6e 
    2f8b:	49 89 04 24          	mov    %rax,(%r12)
    2f8f:	49 89 54 24 08       	mov    %rdx,0x8(%r12)
    2f94:	48 b8 61 62 6c 65 20 	movabs $0x206f7420656c6261,%rax
    2f9b:	74 6f 20 
    2f9e:	48 ba 72 65 73 6f 6c 	movabs $0x2065766c6f736572,%rdx
    2fa5:	76 65 20 
    2fa8:	49 89 44 24 10       	mov    %rax,0x10(%r12)
    2fad:	49 89 54 24 18       	mov    %rdx,0x18(%r12)
    2fb2:	48 b8 73 65 72 76 65 	movabs $0x6120726576726573,%rax
    2fb9:	72 20 61 
    2fbc:	49 89 44 24 20       	mov    %rax,0x20(%r12)
    2fc1:	41 c7 44 24 28 64 64 	movl   $0x65726464,0x28(%r12)
    2fc8:	72 65 
    2fca:	66 41 c7 44 24 2c 73 	movw   $0x7373,0x2c(%r12)
    2fd1:	73 
    2fd2:	41 c6 44 24 2e 00    	movb   $0x0,0x2e(%r12)
    2fd8:	89 df                	mov    %ebx,%edi
    2fda:	e8 c1 de ff ff       	callq  ea0 <close@plt>
    2fdf:	b8 ff ff ff ff       	mov    $0xffffffff,%eax
    2fe4:	e9 1e ff ff ff       	jmpq   2f07 <init_driver+0xea>
    2fe9:	48 b8 45 72 72 6f 72 	movabs $0x55203a726f727245,%rax
    2ff0:	3a 20 55 
    2ff3:	48 ba 6e 61 62 6c 65 	movabs $0x6f7420656c62616e,%rdx
    2ffa:	20 74 6f 
    2ffd:	49 89 04 24          	mov    %rax,(%r12)
    3001:	49 89 54 24 08       	mov    %rdx,0x8(%r12)
    3006:	48 b8 20 63 6f 6e 6e 	movabs $0x7463656e6e6f6320,%rax
    300d:	65 63 74 
    3010:	48 ba 20 74 6f 20 73 	movabs $0x76726573206f7420,%rdx
    3017:	65 72 76 
    301a:	49 89 44 24 10       	mov    %rax,0x10(%r12)
    301f:	49 89 54 24 18       	mov    %rdx,0x18(%r12)
    3024:	66 41 c7 44 24 20 65 	movw   $0x7265,0x20(%r12)
    302b:	72 
    302c:	41 c6 44 24 22 00    	movb   $0x0,0x22(%r12)
    3032:	89 df                	mov    %ebx,%edi
    3034:	e8 67 de ff ff       	callq  ea0 <close@plt>
    3039:	b8 ff ff ff ff       	mov    $0xffffffff,%eax
    303e:	e9 c4 fe ff ff       	jmpq   2f07 <init_driver+0xea>
    3043:	e8 18 de ff ff       	callq  e60 <__stack_chk_fail@plt>

0000000000003048 <driver_post>:
    3048:	53                   	push   %rbx
    3049:	4c 89 cb             	mov    %r9,%rbx
    304c:	45 85 c0             	test   %r8d,%r8d
    304f:	75 18                	jne    3069 <driver_post+0x21>
    3051:	48 85 ff             	test   %rdi,%rdi
    3054:	74 05                	je     305b <driver_post+0x13>
    3056:	80 3f 00             	cmpb   $0x0,(%rdi)
    3059:	75 37                	jne    3092 <driver_post+0x4a>
    305b:	66 c7 03 4f 4b       	movw   $0x4b4f,(%rbx)
    3060:	c6 43 02 00          	movb   $0x0,0x2(%rbx)
    3064:	44 89 c0             	mov    %r8d,%eax
    3067:	5b                   	pop    %rbx
    3068:	c3                   	retq   
    3069:	48 89 ca             	mov    %rcx,%rdx
    306c:	48 8d 35 75 08 00 00 	lea    0x875(%rip),%rsi        # 38e8 <trans_char+0xd8>
    3073:	bf 01 00 00 00       	mov    $0x1,%edi
    3078:	b8 00 00 00 00       	mov    $0x0,%eax
    307d:	e8 de de ff ff       	callq  f60 <__printf_chk@plt>
    3082:	66 c7 03 4f 4b       	movw   $0x4b4f,(%rbx)
    3087:	c6 43 02 00          	movb   $0x0,0x2(%rbx)
    308b:	b8 00 00 00 00       	mov    $0x0,%eax
    3090:	eb d5                	jmp    3067 <driver_post+0x1f>
    3092:	48 83 ec 08          	sub    $0x8,%rsp
    3096:	41 51                	push   %r9
    3098:	49 89 c9             	mov    %rcx,%r9
    309b:	49 89 d0             	mov    %rdx,%r8
    309e:	48 89 f9             	mov    %rdi,%rcx
    30a1:	48 89 f2             	mov    %rsi,%rdx
    30a4:	be 87 5b 00 00       	mov    $0x5b87,%esi
    30a9:	48 8d 3d 2c 08 00 00 	lea    0x82c(%rip),%rdi        # 38dc <trans_char+0xcc>
    30b0:	e8 b9 f5 ff ff       	callq  266e <submitr>
    30b5:	48 83 c4 10          	add    $0x10,%rsp
    30b9:	eb ac                	jmp    3067 <driver_post+0x1f>

00000000000030bb <check>:
    30bb:	89 f8                	mov    %edi,%eax
    30bd:	c1 e8 1c             	shr    $0x1c,%eax
    30c0:	85 c0                	test   %eax,%eax
    30c2:	74 1d                	je     30e1 <check+0x26>
    30c4:	b9 00 00 00 00       	mov    $0x0,%ecx
    30c9:	83 f9 1f             	cmp    $0x1f,%ecx
    30cc:	7f 0d                	jg     30db <check+0x20>
    30ce:	89 f8                	mov    %edi,%eax
    30d0:	d3 e8                	shr    %cl,%eax
    30d2:	3c 0a                	cmp    $0xa,%al
    30d4:	74 11                	je     30e7 <check+0x2c>
    30d6:	83 c1 08             	add    $0x8,%ecx
    30d9:	eb ee                	jmp    30c9 <check+0xe>
    30db:	b8 01 00 00 00       	mov    $0x1,%eax
    30e0:	c3                   	retq   
    30e1:	b8 00 00 00 00       	mov    $0x0,%eax
    30e6:	c3                   	retq   
    30e7:	b8 00 00 00 00       	mov    $0x0,%eax
    30ec:	c3                   	retq   

00000000000030ed <gencookie>:
    30ed:	53                   	push   %rbx
    30ee:	83 c7 01             	add    $0x1,%edi
    30f1:	e8 1a dd ff ff       	callq  e10 <srandom@plt>
    30f6:	e8 25 de ff ff       	callq  f20 <random@plt>
    30fb:	89 c3                	mov    %eax,%ebx
    30fd:	89 c7                	mov    %eax,%edi
    30ff:	e8 b7 ff ff ff       	callq  30bb <check>
    3104:	85 c0                	test   %eax,%eax
    3106:	74 ee                	je     30f6 <gencookie+0x9>
    3108:	89 d8                	mov    %ebx,%eax
    310a:	5b                   	pop    %rbx
    310b:	c3                   	retq   
    310c:	0f 1f 40 00          	nopl   0x0(%rax)

0000000000003110 <__libc_csu_init>:
    3110:	41 57                	push   %r15
    3112:	41 56                	push   %r14
    3114:	49 89 d7             	mov    %rdx,%r15
    3117:	41 55                	push   %r13
    3119:	41 54                	push   %r12
    311b:	4c 8d 25 96 1b 20 00 	lea    0x201b96(%rip),%r12        # 204cb8 <__frame_dummy_init_array_entry>
    3122:	55                   	push   %rbp
    3123:	48 8d 2d 96 1b 20 00 	lea    0x201b96(%rip),%rbp        # 204cc0 <__init_array_end>
    312a:	53                   	push   %rbx
    312b:	41 89 fd             	mov    %edi,%r13d
    312e:	49 89 f6             	mov    %rsi,%r14
    3131:	4c 29 e5             	sub    %r12,%rbp
    3134:	48 83 ec 08          	sub    $0x8,%rsp
    3138:	48 c1 fd 03          	sar    $0x3,%rbp
    313c:	e8 87 dc ff ff       	callq  dc8 <_init>
    3141:	48 85 ed             	test   %rbp,%rbp
    3144:	74 20                	je     3166 <__libc_csu_init+0x56>
    3146:	31 db                	xor    %ebx,%ebx
    3148:	0f 1f 84 00 00 00 00 	nopl   0x0(%rax,%rax,1)
    314f:	00 
    3150:	4c 89 fa             	mov    %r15,%rdx
    3153:	4c 89 f6             	mov    %r14,%rsi
    3156:	44 89 ef             	mov    %r13d,%edi
    3159:	41 ff 14 dc          	callq  *(%r12,%rbx,8)
    315d:	48 83 c3 01          	add    $0x1,%rbx
    3161:	48 39 dd             	cmp    %rbx,%rbp
    3164:	75 ea                	jne    3150 <__libc_csu_init+0x40>
    3166:	48 83 c4 08          	add    $0x8,%rsp
    316a:	5b                   	pop    %rbx
    316b:	5d                   	pop    %rbp
    316c:	41 5c                	pop    %r12
    316e:	41 5d                	pop    %r13
    3170:	41 5e                	pop    %r14
    3172:	41 5f                	pop    %r15
    3174:	c3                   	retq   
    3175:	90                   	nop
    3176:	66 2e 0f 1f 84 00 00 	nopw   %cs:0x0(%rax,%rax,1)
    317d:	00 00 00 

0000000000003180 <__libc_csu_fini>:
    3180:	f3 c3                	repz retq 

Disassembly of section .fini:

0000000000003184 <_fini>:
    3184:	48 83 ec 08          	sub    $0x8,%rsp
    3188:	48 83 c4 08          	add    $0x8,%rsp
    318c:	c3                   	retq   
